
eko_tiger_p61_rhythm.elf:     file format elf32-littlearm

Sections:
Idx Name          Size      VMA       LMA       File off  Algn
  0 .isr_vector   00000198  08000000  08000000  00001000  2**0
                  CONTENTS, ALLOC, LOAD, READONLY, DATA
  1 .text         00001ab0  08000198  08000198  00001198  2**2
                  CONTENTS, ALLOC, LOAD, READONLY, CODE
  2 .rodata       00012fc4  08001c48  08001c48  00002c48  2**1
                  CONTENTS, ALLOC, LOAD, READONLY, DATA
  3 .ARM.extab    00000000  08014c0c  08014c0c  00016068  2**0
                  CONTENTS
  4 .ARM          00000008  08014c0c  08014c0c  00015c0c  2**2
                  CONTENTS, ALLOC, LOAD, READONLY, DATA
  5 .preinit_array 00000000  08014c14  08014c14  00016068  2**0
                  CONTENTS, ALLOC, LOAD, DATA
  6 .init_array   00000004  08014c14  08014c14  00015c14  2**2
                  CONTENTS, ALLOC, LOAD, READONLY, DATA
  7 .fini_array   00000004  08014c18  08014c18  00015c18  2**2
                  CONTENTS, ALLOC, LOAD, READONLY, DATA
  8 .data         00000068  20000000  08014c1c  00016000  2**2
                  CONTENTS, ALLOC, LOAD, DATA
  9 .bss          000002dc  20000068  08014c84  00016068  2**2
                  ALLOC
 10 ._user_heap_stack 00000604  20000344  08014c84  00016344  2**0
                  ALLOC
 11 .ARM.attributes 00000030  00000000  00000000  00016068  2**0
                  CONTENTS, READONLY
 12 .comment      00000043  00000000  00000000  00016098  2**0
                  CONTENTS, READONLY
 13 .debug_frame  000000ac  00000000  00000000  000160dc  2**2
                  CONTENTS, READONLY, DEBUGGING, OCTETS

Disassembly of section .text:

08000198 <__do_global_dtors_aux>:
 8000198:	b510      	push	{r4, lr}
 800019a:	4c05      	ldr	r4, [pc, #20]	@ (80001b0 <__do_global_dtors_aux+0x18>)
 800019c:	7823      	ldrb	r3, [r4, #0]
 800019e:	b933      	cbnz	r3, 80001ae <__do_global_dtors_aux+0x16>
 80001a0:	4b04      	ldr	r3, [pc, #16]	@ (80001b4 <__do_global_dtors_aux+0x1c>)
 80001a2:	b113      	cbz	r3, 80001aa <__do_global_dtors_aux+0x12>
 80001a4:	4804      	ldr	r0, [pc, #16]	@ (80001b8 <__do_global_dtors_aux+0x20>)
 80001a6:	f3af 8000 	nop.w
 80001aa:	2301      	movs	r3, #1
 80001ac:	7023      	strb	r3, [r4, #0]
 80001ae:	bd10      	pop	{r4, pc}
 80001b0:	20000068 	.word	0x20000068
 80001b4:	00000000 	.word	0x00000000
 80001b8:	08001c30 	.word	0x08001c30

080001bc <frame_dummy>:
 80001bc:	b508      	push	{r3, lr}
 80001be:	4b03      	ldr	r3, [pc, #12]	@ (80001cc <frame_dummy+0x10>)
 80001c0:	b11b      	cbz	r3, 80001ca <frame_dummy+0xe>
 80001c2:	4903      	ldr	r1, [pc, #12]	@ (80001d0 <frame_dummy+0x14>)
 80001c4:	4803      	ldr	r0, [pc, #12]	@ (80001d4 <frame_dummy+0x18>)
 80001c6:	f3af 8000 	nop.w
 80001ca:	bd08      	pop	{r3, pc}
 80001cc:	00000000 	.word	0x00000000
 80001d0:	2000006c 	.word	0x2000006c
 80001d4:	08001c30 	.word	0x08001c30

080001d8 <__aeabi_uldivmod>:
 80001d8:	b953      	cbnz	r3, 80001f0 <__aeabi_uldivmod+0x18>
 80001da:	b94a      	cbnz	r2, 80001f0 <__aeabi_uldivmod+0x18>
 80001dc:	2900      	cmp	r1, #0
 80001de:	bf08      	it	eq
 80001e0:	2800      	cmpeq	r0, #0
 80001e2:	bf1c      	itt	ne
 80001e4:	f04f 31ff 	movne.w	r1, #4294967295
 80001e8:	f04f 30ff 	movne.w	r0, #4294967295
 80001ec:	f000 b96a 	b.w	80004c4 <__aeabi_idiv0>
 80001f0:	f1ad 0c08 	sub.w	ip, sp, #8
 80001f4:	e96d ce04 	strd	ip, lr, [sp, #-16]!
 80001f8:	f000 f806 	bl	8000208 <__udivmoddi4>
 80001fc:	f8dd e004 	ldr.w	lr, [sp, #4]
 8000200:	e9dd 2302 	ldrd	r2, r3, [sp, #8]
 8000204:	b004      	add	sp, #16
 8000206:	4770      	bx	lr

08000208 <__udivmoddi4>:
 8000208:	e92d 47f0 	stmdb	sp!, {r4, r5, r6, r7, r8, r9, sl, lr}
 800020c:	9d08      	ldr	r5, [sp, #32]
 800020e:	460c      	mov	r4, r1
 8000210:	2b00      	cmp	r3, #0
 8000212:	d14e      	bne.n	80002b2 <__udivmoddi4+0xaa>
 8000214:	4694      	mov	ip, r2
 8000216:	458c      	cmp	ip, r1
 8000218:	4686      	mov	lr, r0
 800021a:	fab2 f282 	clz	r2, r2
 800021e:	d962      	bls.n	80002e6 <__udivmoddi4+0xde>
 8000220:	b14a      	cbz	r2, 8000236 <__udivmoddi4+0x2e>
 8000222:	f1c2 0320 	rsb	r3, r2, #32
 8000226:	4091      	lsls	r1, r2
 8000228:	fa20 f303 	lsr.w	r3, r0, r3
 800022c:	fa0c fc02 	lsl.w	ip, ip, r2
 8000230:	4319      	orrs	r1, r3
 8000232:	fa00 fe02 	lsl.w	lr, r0, r2
 8000236:	ea4f 471c 	mov.w	r7, ip, lsr #16
 800023a:	fa1f f68c 	uxth.w	r6, ip
 800023e:	fbb1 f4f7 	udiv	r4, r1, r7
 8000242:	ea4f 431e 	mov.w	r3, lr, lsr #16
 8000246:	fb07 1114 	mls	r1, r7, r4, r1
 800024a:	ea43 4301 	orr.w	r3, r3, r1, lsl #16
 800024e:	fb04 f106 	mul.w	r1, r4, r6
 8000252:	4299      	cmp	r1, r3
 8000254:	d90a      	bls.n	800026c <__udivmoddi4+0x64>
 8000256:	eb1c 0303 	adds.w	r3, ip, r3
 800025a:	f104 30ff 	add.w	r0, r4, #4294967295
 800025e:	f080 8112 	bcs.w	8000486 <__udivmoddi4+0x27e>
 8000262:	4299      	cmp	r1, r3
 8000264:	f240 810f 	bls.w	8000486 <__udivmoddi4+0x27e>
 8000268:	3c02      	subs	r4, #2
 800026a:	4463      	add	r3, ip
 800026c:	1a59      	subs	r1, r3, r1
 800026e:	fa1f f38e 	uxth.w	r3, lr
 8000272:	fbb1 f0f7 	udiv	r0, r1, r7
 8000276:	fb07 1110 	mls	r1, r7, r0, r1
 800027a:	ea43 4301 	orr.w	r3, r3, r1, lsl #16
 800027e:	fb00 f606 	mul.w	r6, r0, r6
 8000282:	429e      	cmp	r6, r3
 8000284:	d90a      	bls.n	800029c <__udivmoddi4+0x94>
 8000286:	eb1c 0303 	adds.w	r3, ip, r3
 800028a:	f100 31ff 	add.w	r1, r0, #4294967295
 800028e:	f080 80fc 	bcs.w	800048a <__udivmoddi4+0x282>
 8000292:	429e      	cmp	r6, r3
 8000294:	f240 80f9 	bls.w	800048a <__udivmoddi4+0x282>
 8000298:	4463      	add	r3, ip
 800029a:	3802      	subs	r0, #2
 800029c:	1b9b      	subs	r3, r3, r6
 800029e:	ea40 4004 	orr.w	r0, r0, r4, lsl #16
 80002a2:	2100      	movs	r1, #0
 80002a4:	b11d      	cbz	r5, 80002ae <__udivmoddi4+0xa6>
 80002a6:	40d3      	lsrs	r3, r2
 80002a8:	2200      	movs	r2, #0
 80002aa:	e9c5 3200 	strd	r3, r2, [r5]
 80002ae:	e8bd 87f0 	ldmia.w	sp!, {r4, r5, r6, r7, r8, r9, sl, pc}
 80002b2:	428b      	cmp	r3, r1
 80002b4:	d905      	bls.n	80002c2 <__udivmoddi4+0xba>
 80002b6:	b10d      	cbz	r5, 80002bc <__udivmoddi4+0xb4>
 80002b8:	e9c5 0100 	strd	r0, r1, [r5]
 80002bc:	2100      	movs	r1, #0
 80002be:	4608      	mov	r0, r1
 80002c0:	e7f5      	b.n	80002ae <__udivmoddi4+0xa6>
 80002c2:	fab3 f183 	clz	r1, r3
 80002c6:	2900      	cmp	r1, #0
 80002c8:	d146      	bne.n	8000358 <__udivmoddi4+0x150>
 80002ca:	42a3      	cmp	r3, r4
 80002cc:	d302      	bcc.n	80002d4 <__udivmoddi4+0xcc>
 80002ce:	4290      	cmp	r0, r2
 80002d0:	f0c0 80f0 	bcc.w	80004b4 <__udivmoddi4+0x2ac>
 80002d4:	1a86      	subs	r6, r0, r2
 80002d6:	eb64 0303 	sbc.w	r3, r4, r3
 80002da:	2001      	movs	r0, #1
 80002dc:	2d00      	cmp	r5, #0
 80002de:	d0e6      	beq.n	80002ae <__udivmoddi4+0xa6>
 80002e0:	e9c5 6300 	strd	r6, r3, [r5]
 80002e4:	e7e3      	b.n	80002ae <__udivmoddi4+0xa6>
 80002e6:	2a00      	cmp	r2, #0
 80002e8:	f040 8090 	bne.w	800040c <__udivmoddi4+0x204>
 80002ec:	eba1 040c 	sub.w	r4, r1, ip
 80002f0:	ea4f 481c 	mov.w	r8, ip, lsr #16
 80002f4:	fa1f f78c 	uxth.w	r7, ip
 80002f8:	2101      	movs	r1, #1
 80002fa:	fbb4 f6f8 	udiv	r6, r4, r8
 80002fe:	ea4f 431e 	mov.w	r3, lr, lsr #16
 8000302:	fb08 4416 	mls	r4, r8, r6, r4
 8000306:	ea43 4304 	orr.w	r3, r3, r4, lsl #16
 800030a:	fb07 f006 	mul.w	r0, r7, r6
 800030e:	4298      	cmp	r0, r3
 8000310:	d908      	bls.n	8000324 <__udivmoddi4+0x11c>
 8000312:	eb1c 0303 	adds.w	r3, ip, r3
 8000316:	f106 34ff 	add.w	r4, r6, #4294967295
 800031a:	d202      	bcs.n	8000322 <__udivmoddi4+0x11a>
 800031c:	4298      	cmp	r0, r3
 800031e:	f200 80cd 	bhi.w	80004bc <__udivmoddi4+0x2b4>
 8000322:	4626      	mov	r6, r4
 8000324:	1a1c      	subs	r4, r3, r0
 8000326:	fa1f f38e 	uxth.w	r3, lr
 800032a:	fbb4 f0f8 	udiv	r0, r4, r8
 800032e:	fb08 4410 	mls	r4, r8, r0, r4
 8000332:	ea43 4304 	orr.w	r3, r3, r4, lsl #16
 8000336:	fb00 f707 	mul.w	r7, r0, r7
 800033a:	429f      	cmp	r7, r3
 800033c:	d908      	bls.n	8000350 <__udivmoddi4+0x148>
 800033e:	eb1c 0303 	adds.w	r3, ip, r3
 8000342:	f100 34ff 	add.w	r4, r0, #4294967295
 8000346:	d202      	bcs.n	800034e <__udivmoddi4+0x146>
 8000348:	429f      	cmp	r7, r3
 800034a:	f200 80b0 	bhi.w	80004ae <__udivmoddi4+0x2a6>
 800034e:	4620      	mov	r0, r4
 8000350:	1bdb      	subs	r3, r3, r7
 8000352:	ea40 4006 	orr.w	r0, r0, r6, lsl #16
 8000356:	e7a5      	b.n	80002a4 <__udivmoddi4+0x9c>
 8000358:	f1c1 0620 	rsb	r6, r1, #32
 800035c:	408b      	lsls	r3, r1
 800035e:	fa22 f706 	lsr.w	r7, r2, r6
 8000362:	431f      	orrs	r7, r3
 8000364:	fa20 fc06 	lsr.w	ip, r0, r6
 8000368:	fa04 f301 	lsl.w	r3, r4, r1
 800036c:	ea43 030c 	orr.w	r3, r3, ip
 8000370:	40f4      	lsrs	r4, r6
 8000372:	fa00 f801 	lsl.w	r8, r0, r1
 8000376:	0c38      	lsrs	r0, r7, #16
 8000378:	ea4f 4913 	mov.w	r9, r3, lsr #16
 800037c:	fbb4 fef0 	udiv	lr, r4, r0
 8000380:	fa1f fc87 	uxth.w	ip, r7
 8000384:	fb00 441e 	mls	r4, r0, lr, r4
 8000388:	ea49 4404 	orr.w	r4, r9, r4, lsl #16
 800038c:	fb0e f90c 	mul.w	r9, lr, ip
 8000390:	45a1      	cmp	r9, r4
 8000392:	fa02 f201 	lsl.w	r2, r2, r1
 8000396:	d90a      	bls.n	80003ae <__udivmoddi4+0x1a6>
 8000398:	193c      	adds	r4, r7, r4
 800039a:	f10e 3aff 	add.w	sl, lr, #4294967295
 800039e:	f080 8084 	bcs.w	80004aa <__udivmoddi4+0x2a2>
 80003a2:	45a1      	cmp	r9, r4
 80003a4:	f240 8081 	bls.w	80004aa <__udivmoddi4+0x2a2>
 80003a8:	f1ae 0e02 	sub.w	lr, lr, #2
 80003ac:	443c      	add	r4, r7
 80003ae:	eba4 0409 	sub.w	r4, r4, r9
 80003b2:	fa1f f983 	uxth.w	r9, r3
 80003b6:	fbb4 f3f0 	udiv	r3, r4, r0
 80003ba:	fb00 4413 	mls	r4, r0, r3, r4
 80003be:	ea49 4404 	orr.w	r4, r9, r4, lsl #16
 80003c2:	fb03 fc0c 	mul.w	ip, r3, ip
 80003c6:	45a4      	cmp	ip, r4
 80003c8:	d907      	bls.n	80003da <__udivmoddi4+0x1d2>
 80003ca:	193c      	adds	r4, r7, r4
 80003cc:	f103 30ff 	add.w	r0, r3, #4294967295
 80003d0:	d267      	bcs.n	80004a2 <__udivmoddi4+0x29a>
 80003d2:	45a4      	cmp	ip, r4
 80003d4:	d965      	bls.n	80004a2 <__udivmoddi4+0x29a>
 80003d6:	3b02      	subs	r3, #2
 80003d8:	443c      	add	r4, r7
 80003da:	ea43 400e 	orr.w	r0, r3, lr, lsl #16
 80003de:	fba0 9302 	umull	r9, r3, r0, r2
 80003e2:	eba4 040c 	sub.w	r4, r4, ip
 80003e6:	429c      	cmp	r4, r3
 80003e8:	46ce      	mov	lr, r9
 80003ea:	469c      	mov	ip, r3
 80003ec:	d351      	bcc.n	8000492 <__udivmoddi4+0x28a>
 80003ee:	d04e      	beq.n	800048e <__udivmoddi4+0x286>
 80003f0:	b155      	cbz	r5, 8000408 <__udivmoddi4+0x200>
 80003f2:	ebb8 030e 	subs.w	r3, r8, lr
 80003f6:	eb64 040c 	sbc.w	r4, r4, ip
 80003fa:	fa04 f606 	lsl.w	r6, r4, r6
 80003fe:	40cb      	lsrs	r3, r1
 8000400:	431e      	orrs	r6, r3
 8000402:	40cc      	lsrs	r4, r1
 8000404:	e9c5 6400 	strd	r6, r4, [r5]
 8000408:	2100      	movs	r1, #0
 800040a:	e750      	b.n	80002ae <__udivmoddi4+0xa6>
 800040c:	f1c2 0320 	rsb	r3, r2, #32
 8000410:	fa20 f103 	lsr.w	r1, r0, r3
 8000414:	fa0c fc02 	lsl.w	ip, ip, r2
 8000418:	fa24 f303 	lsr.w	r3, r4, r3
 800041c:	4094      	lsls	r4, r2
 800041e:	430c      	orrs	r4, r1
 8000420:	ea4f 481c 	mov.w	r8, ip, lsr #16
 8000424:	fa00 fe02 	lsl.w	lr, r0, r2
 8000428:	fa1f f78c 	uxth.w	r7, ip
 800042c:	fbb3 f0f8 	udiv	r0, r3, r8
 8000430:	fb08 3110 	mls	r1, r8, r0, r3
 8000434:	0c23      	lsrs	r3, r4, #16
 8000436:	ea43 4301 	orr.w	r3, r3, r1, lsl #16
 800043a:	fb00 f107 	mul.w	r1, r0, r7
 800043e:	4299      	cmp	r1, r3
 8000440:	d908      	bls.n	8000454 <__udivmoddi4+0x24c>
 8000442:	eb1c 0303 	adds.w	r3, ip, r3
 8000446:	f100 36ff 	add.w	r6, r0, #4294967295
 800044a:	d22c      	bcs.n	80004a6 <__udivmoddi4+0x29e>
 800044c:	4299      	cmp	r1, r3
 800044e:	d92a      	bls.n	80004a6 <__udivmoddi4+0x29e>
 8000450:	3802      	subs	r0, #2
 8000452:	4463      	add	r3, ip
 8000454:	1a5b      	subs	r3, r3, r1
 8000456:	b2a4      	uxth	r4, r4
 8000458:	fbb3 f1f8 	udiv	r1, r3, r8
 800045c:	fb08 3311 	mls	r3, r8, r1, r3
 8000460:	ea44 4403 	orr.w	r4, r4, r3, lsl #16
 8000464:	fb01 f307 	mul.w	r3, r1, r7
 8000468:	42a3      	cmp	r3, r4
 800046a:	d908      	bls.n	800047e <__udivmoddi4+0x276>
 800046c:	eb1c 0404 	adds.w	r4, ip, r4
 8000470:	f101 36ff 	add.w	r6, r1, #4294967295
 8000474:	d213      	bcs.n	800049e <__udivmoddi4+0x296>
 8000476:	42a3      	cmp	r3, r4
 8000478:	d911      	bls.n	800049e <__udivmoddi4+0x296>
 800047a:	3902      	subs	r1, #2
 800047c:	4464      	add	r4, ip
 800047e:	1ae4      	subs	r4, r4, r3
 8000480:	ea41 4100 	orr.w	r1, r1, r0, lsl #16
 8000484:	e739      	b.n	80002fa <__udivmoddi4+0xf2>
 8000486:	4604      	mov	r4, r0
 8000488:	e6f0      	b.n	800026c <__udivmoddi4+0x64>
 800048a:	4608      	mov	r0, r1
 800048c:	e706      	b.n	800029c <__udivmoddi4+0x94>
 800048e:	45c8      	cmp	r8, r9
 8000490:	d2ae      	bcs.n	80003f0 <__udivmoddi4+0x1e8>
 8000492:	ebb9 0e02 	subs.w	lr, r9, r2
 8000496:	eb63 0c07 	sbc.w	ip, r3, r7
 800049a:	3801      	subs	r0, #1
 800049c:	e7a8      	b.n	80003f0 <__udivmoddi4+0x1e8>
 800049e:	4631      	mov	r1, r6
 80004a0:	e7ed      	b.n	800047e <__udivmoddi4+0x276>
 80004a2:	4603      	mov	r3, r0
 80004a4:	e799      	b.n	80003da <__udivmoddi4+0x1d2>
 80004a6:	4630      	mov	r0, r6
 80004a8:	e7d4      	b.n	8000454 <__udivmoddi4+0x24c>
 80004aa:	46d6      	mov	lr, sl
 80004ac:	e77f      	b.n	80003ae <__udivmoddi4+0x1a6>
 80004ae:	4463      	add	r3, ip
 80004b0:	3802      	subs	r0, #2
 80004b2:	e74d      	b.n	8000350 <__udivmoddi4+0x148>
 80004b4:	4606      	mov	r6, r0
 80004b6:	4623      	mov	r3, r4
 80004b8:	4608      	mov	r0, r1
 80004ba:	e70f      	b.n	80002dc <__udivmoddi4+0xd4>
 80004bc:	3e02      	subs	r6, #2
 80004be:	4463      	add	r3, ip
 80004c0:	e730      	b.n	8000324 <__udivmoddi4+0x11c>
 80004c2:	bf00      	nop

080004c4 <__aeabi_idiv0>:
 80004c4:	4770      	bx	lr
 80004c6:	bf00      	nop

080004c8 <MX_DMA_Init>:
 80004c8:	b507      	push	{r0, r1, r2, lr}
 80004ca:	4b0b      	ldr	r3, [pc, #44]	@ (80004f8 <MX_DMA_Init+0x30>)
 80004cc:	2200      	movs	r2, #0
 80004ce:	9201      	str	r2, [sp, #4]
 80004d0:	6b19      	ldr	r1, [r3, #48]	@ 0x30
 80004d2:	f441 0180 	orr.w	r1, r1, #4194304	@ 0x400000
 80004d6:	6319      	str	r1, [r3, #48]	@ 0x30
 80004d8:	6b1b      	ldr	r3, [r3, #48]	@ 0x30
 80004da:	f403 0380 	and.w	r3, r3, #4194304	@ 0x400000
 80004de:	9301      	str	r3, [sp, #4]
 80004e0:	4611      	mov	r1, r2
 80004e2:	203a      	movs	r0, #58	@ 0x3a
 80004e4:	9b01      	ldr	r3, [sp, #4]
 80004e6:	f000 fac3 	bl	8000a70 <HAL_NVIC_SetPriority>
 80004ea:	203a      	movs	r0, #58	@ 0x3a
 80004ec:	b003      	add	sp, #12
 80004ee:	f85d eb04 	ldr.w	lr, [sp], #4
 80004f2:	f000 baef 	b.w	8000ad4 <HAL_NVIC_EnableIRQ>
 80004f6:	bf00      	nop
 80004f8:	40023800 	.word	0x40023800

080004fc <eko_tiger_p61_rhythm_setup>:
 80004fc:	b508      	push	{r3, lr}
 80004fe:	490d      	ldr	r1, [pc, #52]	@ (8000534 <eko_tiger_p61_rhythm_setup+0x38>)
 8000500:	480d      	ldr	r0, [pc, #52]	@ (8000538 <eko_tiger_p61_rhythm_setup+0x3c>)
 8000502:	2280      	movs	r2, #128	@ 0x80
 8000504:	f000 fdfa 	bl	80010fc <HAL_I2S_Transmit_DMA>
 8000508:	4b0c      	ldr	r3, [pc, #48]	@ (800053c <eko_tiger_p61_rhythm_setup+0x40>)
 800050a:	490d      	ldr	r1, [pc, #52]	@ (8000540 <eko_tiger_p61_rhythm_setup+0x44>)
 800050c:	2200      	movs	r2, #0
 800050e:	601a      	str	r2, [r3, #0]
 8000510:	4b0c      	ldr	r3, [pc, #48]	@ (8000544 <eko_tiger_p61_rhythm_setup+0x48>)
 8000512:	681a      	ldr	r2, [r3, #0]
 8000514:	4b0c      	ldr	r3, [pc, #48]	@ (8000548 <eko_tiger_p61_rhythm_setup+0x4c>)
 8000516:	601a      	str	r2, [r3, #0]
 8000518:	4b0c      	ldr	r3, [pc, #48]	@ (800054c <eko_tiger_p61_rhythm_setup+0x50>)
 800051a:	781b      	ldrb	r3, [r3, #0]
 800051c:	eb03 0383 	add.w	r3, r3, r3, lsl #2
 8000520:	4413      	add	r3, r2
 8000522:	600b      	str	r3, [r1, #0]
 8000524:	4b0a      	ldr	r3, [pc, #40]	@ (8000550 <eko_tiger_p61_rhythm_setup+0x54>)
 8000526:	601a      	str	r2, [r3, #0]
 8000528:	4b0a      	ldr	r3, [pc, #40]	@ (8000554 <eko_tiger_p61_rhythm_setup+0x58>)
 800052a:	f248 1233 	movw	r2, #33075	@ 0x8133
 800052e:	601a      	str	r2, [r3, #0]
 8000530:	bd08      	pop	{r3, pc}
 8000532:	bf00      	nop
 8000534:	20000098 	.word	0x20000098
 8000538:	200002f8 	.word	0x200002f8
 800053c:	20000094 	.word	0x20000094
 8000540:	20000088 	.word	0x20000088
 8000544:	2000003c 	.word	0x2000003c
 8000548:	2000008c 	.word	0x2000008c
 800054c:	080148ac 	.word	0x080148ac
 8000550:	20000084 	.word	0x20000084
 8000554:	20000090 	.word	0x20000090

08000558 <HAL_I2S_TxHalfCpltCallback>:
 8000558:	e92d 4ff7 	stmdb	sp!, {r0, r1, r2, r4, r5, r6, r7, r8, r9, sl, fp, lr}
 800055c:	4b2b      	ldr	r3, [pc, #172]	@ (800060c <HAL_I2S_TxHalfCpltCallback+0xb4>)
 800055e:	f8df e0c0 	ldr.w	lr, [pc, #192]	@ 8000620 <HAL_I2S_TxHalfCpltCallback+0xc8>
 8000562:	f8d3 8000 	ldr.w	r8, [r3]
 8000566:	4b2a      	ldr	r3, [pc, #168]	@ (8000610 <HAL_I2S_TxHalfCpltCallback+0xb8>)
 8000568:	4d2a      	ldr	r5, [pc, #168]	@ (8000614 <HAL_I2S_TxHalfCpltCallback+0xbc>)
 800056a:	681b      	ldr	r3, [r3, #0]
 800056c:	9300      	str	r3, [sp, #0]
 800056e:	4b2a      	ldr	r3, [pc, #168]	@ (8000618 <HAL_I2S_TxHalfCpltCallback+0xc0>)
 8000570:	f8df c0b0 	ldr.w	ip, [pc, #176]	@ 8000624 <HAL_I2S_TxHalfCpltCallback+0xcc>
 8000574:	681b      	ldr	r3, [r3, #0]
 8000576:	9301      	str	r3, [sp, #4]
 8000578:	2040      	movs	r0, #64	@ 0x40
 800057a:	2600      	movs	r6, #0
 800057c:	f04f 0901 	mov.w	r9, #1
 8000580:	682b      	ldr	r3, [r5, #0]
 8000582:	3301      	adds	r3, #1
 8000584:	4543      	cmp	r3, r8
 8000586:	d225      	bcs.n	80005d4 <HAL_I2S_TxHalfCpltCallback+0x7c>
 8000588:	602b      	str	r3, [r5, #0]
 800058a:	2400      	movs	r4, #0
 800058c:	4b23      	ldr	r3, [pc, #140]	@ (800061c <HAL_I2S_TxHalfCpltCallback+0xc4>)
 800058e:	4622      	mov	r2, r4
 8000590:	7a19      	ldrb	r1, [r3, #8]
 8000592:	b171      	cbz	r1, 80005b2 <HAL_I2S_TxHalfCpltCallback+0x5a>
 8000594:	88d9      	ldrh	r1, [r3, #6]
 8000596:	681f      	ldr	r7, [r3, #0]
 8000598:	f8b3 b004 	ldrh.w	fp, [r3, #4]
 800059c:	f937 7011 	ldrsh.w	r7, [r7, r1, lsl #1]
 80005a0:	f893 a009 	ldrb.w	sl, [r3, #9]
 80005a4:	3101      	adds	r1, #1
 80005a6:	b289      	uxth	r1, r1
 80005a8:	458b      	cmp	fp, r1
 80005aa:	80d9      	strh	r1, [r3, #6]
 80005ac:	d92b      	bls.n	8000606 <HAL_I2S_TxHalfCpltCallback+0xae>
 80005ae:	fb17 220a 	smlabb	r2, r7, sl, r2
 80005b2:	3403      	adds	r4, #3
 80005b4:	2c0f      	cmp	r4, #15
 80005b6:	f103 030c 	add.w	r3, r3, #12
 80005ba:	d1e9      	bne.n	8000590 <HAL_I2S_TxHalfCpltCallback+0x38>
 80005bc:	1212      	asrs	r2, r2, #8
 80005be:	3801      	subs	r0, #1
 80005c0:	f202 72ff 	addw	r2, r2, #2047	@ 0x7ff
 80005c4:	b280      	uxth	r0, r0
 80005c6:	f84e 2b04 	str.w	r2, [lr], #4
 80005ca:	2800      	cmp	r0, #0
 80005cc:	d1d8      	bne.n	8000580 <HAL_I2S_TxHalfCpltCallback+0x28>
 80005ce:	b003      	add	sp, #12
 80005d0:	e8bd 8ff0 	ldmia.w	sp!, {r4, r5, r6, r7, r8, r9, sl, fp, pc}
 80005d4:	4b11      	ldr	r3, [pc, #68]	@ (800061c <HAL_I2S_TxHalfCpltCallback+0xc4>)
 80005d6:	602e      	str	r6, [r5, #0]
 80005d8:	2205      	movs	r2, #5
 80005da:	f8dc 4000 	ldr.w	r4, [ip]
 80005de:	1c61      	adds	r1, r4, #1
 80005e0:	f8cc 1000 	str.w	r1, [ip]
 80005e4:	7824      	ldrb	r4, [r4, #0]
 80005e6:	b11c      	cbz	r4, 80005f0 <HAL_I2S_TxHalfCpltCallback+0x98>
 80005e8:	80de      	strh	r6, [r3, #6]
 80005ea:	725c      	strb	r4, [r3, #9]
 80005ec:	f883 9008 	strb.w	r9, [r3, #8]
 80005f0:	3a01      	subs	r2, #1
 80005f2:	f103 030c 	add.w	r3, r3, #12
 80005f6:	d1f0      	bne.n	80005da <HAL_I2S_TxHalfCpltCallback+0x82>
 80005f8:	9b00      	ldr	r3, [sp, #0]
 80005fa:	4299      	cmp	r1, r3
 80005fc:	bf04      	itt	eq
 80005fe:	9b01      	ldreq	r3, [sp, #4]
 8000600:	f8cc 3000 	streq.w	r3, [ip]
 8000604:	e7c1      	b.n	800058a <HAL_I2S_TxHalfCpltCallback+0x32>
 8000606:	721e      	strb	r6, [r3, #8]
 8000608:	e7d1      	b.n	80005ae <HAL_I2S_TxHalfCpltCallback+0x56>
 800060a:	bf00      	nop
 800060c:	20000090 	.word	0x20000090
 8000610:	20000088 	.word	0x20000088
 8000614:	20000094 	.word	0x20000094
 8000618:	2000008c 	.word	0x2000008c
 800061c:	20000000 	.word	0x20000000
 8000620:	20000098 	.word	0x20000098
 8000624:	20000084 	.word	0x20000084

08000628 <HAL_I2S_TxCpltCallback>:
 8000628:	e92d 4ff7 	stmdb	sp!, {r0, r1, r2, r4, r5, r6, r7, r8, r9, sl, fp, lr}
 800062c:	4b2a      	ldr	r3, [pc, #168]	@ (80006d8 <HAL_I2S_TxCpltCallback+0xb0>)
 800062e:	4d2b      	ldr	r5, [pc, #172]	@ (80006dc <HAL_I2S_TxCpltCallback+0xb4>)
 8000630:	681b      	ldr	r3, [r3, #0]
 8000632:	9300      	str	r3, [sp, #0]
 8000634:	4b2a      	ldr	r3, [pc, #168]	@ (80006e0 <HAL_I2S_TxCpltCallback+0xb8>)
 8000636:	f8df c0b4 	ldr.w	ip, [pc, #180]	@ 80006ec <HAL_I2S_TxCpltCallback+0xc4>
 800063a:	f8d3 e000 	ldr.w	lr, [r3]
 800063e:	4b29      	ldr	r3, [pc, #164]	@ (80006e4 <HAL_I2S_TxCpltCallback+0xbc>)
 8000640:	f8df 80ac 	ldr.w	r8, [pc, #172]	@ 80006f0 <HAL_I2S_TxCpltCallback+0xc8>
 8000644:	681b      	ldr	r3, [r3, #0]
 8000646:	9301      	str	r3, [sp, #4]
 8000648:	2040      	movs	r0, #64	@ 0x40
 800064a:	2600      	movs	r6, #0
 800064c:	f04f 0901 	mov.w	r9, #1
 8000650:	682b      	ldr	r3, [r5, #0]
 8000652:	9a00      	ldr	r2, [sp, #0]
 8000654:	3301      	adds	r3, #1
 8000656:	4293      	cmp	r3, r2
 8000658:	d224      	bcs.n	80006a4 <HAL_I2S_TxCpltCallback+0x7c>
 800065a:	602b      	str	r3, [r5, #0]
 800065c:	2400      	movs	r4, #0
 800065e:	4b22      	ldr	r3, [pc, #136]	@ (80006e8 <HAL_I2S_TxCpltCallback+0xc0>)
 8000660:	4622      	mov	r2, r4
 8000662:	7a19      	ldrb	r1, [r3, #8]
 8000664:	b171      	cbz	r1, 8000684 <HAL_I2S_TxCpltCallback+0x5c>
 8000666:	88d9      	ldrh	r1, [r3, #6]
 8000668:	681f      	ldr	r7, [r3, #0]
 800066a:	f8b3 b004 	ldrh.w	fp, [r3, #4]
 800066e:	f937 7011 	ldrsh.w	r7, [r7, r1, lsl #1]
 8000672:	f893 a009 	ldrb.w	sl, [r3, #9]
 8000676:	3101      	adds	r1, #1
 8000678:	b289      	uxth	r1, r1
 800067a:	458b      	cmp	fp, r1
 800067c:	80d9      	strh	r1, [r3, #6]
 800067e:	d929      	bls.n	80006d4 <HAL_I2S_TxCpltCallback+0xac>
 8000680:	fb17 220a 	smlabb	r2, r7, sl, r2
 8000684:	3403      	adds	r4, #3
 8000686:	2c0f      	cmp	r4, #15
 8000688:	f103 030c 	add.w	r3, r3, #12
 800068c:	d1e9      	bne.n	8000662 <HAL_I2S_TxCpltCallback+0x3a>
 800068e:	1212      	asrs	r2, r2, #8
 8000690:	f202 72ff 	addw	r2, r2, #2047	@ 0x7ff
 8000694:	f848 2020 	str.w	r2, [r8, r0, lsl #2]
 8000698:	3001      	adds	r0, #1
 800069a:	2880      	cmp	r0, #128	@ 0x80
 800069c:	d1d8      	bne.n	8000650 <HAL_I2S_TxCpltCallback+0x28>
 800069e:	b003      	add	sp, #12
 80006a0:	e8bd 8ff0 	ldmia.w	sp!, {r4, r5, r6, r7, r8, r9, sl, fp, pc}
 80006a4:	4b10      	ldr	r3, [pc, #64]	@ (80006e8 <HAL_I2S_TxCpltCallback+0xc0>)
 80006a6:	602e      	str	r6, [r5, #0]
 80006a8:	2205      	movs	r2, #5
 80006aa:	f8dc 4000 	ldr.w	r4, [ip]
 80006ae:	1c61      	adds	r1, r4, #1
 80006b0:	f8cc 1000 	str.w	r1, [ip]
 80006b4:	7824      	ldrb	r4, [r4, #0]
 80006b6:	b11c      	cbz	r4, 80006c0 <HAL_I2S_TxCpltCallback+0x98>
 80006b8:	80de      	strh	r6, [r3, #6]
 80006ba:	725c      	strb	r4, [r3, #9]
 80006bc:	f883 9008 	strb.w	r9, [r3, #8]
 80006c0:	3a01      	subs	r2, #1
 80006c2:	f103 030c 	add.w	r3, r3, #12
 80006c6:	d1f0      	bne.n	80006aa <HAL_I2S_TxCpltCallback+0x82>
 80006c8:	4571      	cmp	r1, lr
 80006ca:	bf04      	itt	eq
 80006cc:	9b01      	ldreq	r3, [sp, #4]
 80006ce:	f8cc 3000 	streq.w	r3, [ip]
 80006d2:	e7c3      	b.n	800065c <HAL_I2S_TxCpltCallback+0x34>
 80006d4:	721e      	strb	r6, [r3, #8]
 80006d6:	e7d3      	b.n	8000680 <HAL_I2S_TxCpltCallback+0x58>
 80006d8:	20000090 	.word	0x20000090
 80006dc:	20000094 	.word	0x20000094
 80006e0:	20000088 	.word	0x20000088
 80006e4:	2000008c 	.word	0x2000008c
 80006e8:	20000000 	.word	0x20000000
 80006ec:	20000084 	.word	0x20000084
 80006f0:	20000098 	.word	0x20000098

080006f4 <MX_GPIO_Init>:
 80006f4:	b082      	sub	sp, #8
 80006f6:	2300      	movs	r3, #0
 80006f8:	9301      	str	r3, [sp, #4]
 80006fa:	4b06      	ldr	r3, [pc, #24]	@ (8000714 <MX_GPIO_Init+0x20>)
 80006fc:	6b1a      	ldr	r2, [r3, #48]	@ 0x30
 80006fe:	f042 0201 	orr.w	r2, r2, #1
 8000702:	631a      	str	r2, [r3, #48]	@ 0x30
 8000704:	6b1b      	ldr	r3, [r3, #48]	@ 0x30
 8000706:	f003 0301 	and.w	r3, r3, #1
 800070a:	9301      	str	r3, [sp, #4]
 800070c:	9b01      	ldr	r3, [sp, #4]
 800070e:	b002      	add	sp, #8
 8000710:	4770      	bx	lr
 8000712:	bf00      	nop
 8000714:	40023800 	.word	0x40023800

08000718 <MX_I2S1_Init>:
 8000718:	480c      	ldr	r0, [pc, #48]	@ (800074c <MX_I2S1_Init+0x34>)
 800071a:	4a0d      	ldr	r2, [pc, #52]	@ (8000750 <MX_I2S1_Init+0x38>)
 800071c:	b508      	push	{r3, lr}
 800071e:	f44f 7300 	mov.w	r3, #512	@ 0x200
 8000722:	e9c0 2300 	strd	r2, r3, [r0]
 8000726:	2300      	movs	r3, #0
 8000728:	f64a 4244 	movw	r2, #44100	@ 0xac44
 800072c:	e9c0 3302 	strd	r3, r3, [r0, #8]
 8000730:	e9c0 2305 	strd	r2, r3, [r0, #20]
 8000734:	e9c0 3307 	strd	r3, r3, [r0, #28]
 8000738:	6103      	str	r3, [r0, #16]
 800073a:	f000 fc3f 	bl	8000fbc <HAL_I2S_Init>
 800073e:	b118      	cbz	r0, 8000748 <MX_I2S1_Init+0x30>
 8000740:	e8bd 4008 	ldmia.w	sp!, {r3, lr}
 8000744:	f000 b8d0 	b.w	80008e8 <Error_Handler>
 8000748:	bd08      	pop	{r3, pc}
 800074a:	bf00      	nop
 800074c:	200002f8 	.word	0x200002f8
 8000750:	40013000 	.word	0x40013000

08000754 <HAL_I2S_MspInit>:
 8000754:	b570      	push	{r4, r5, r6, lr}
 8000756:	b08e      	sub	sp, #56	@ 0x38
 8000758:	4606      	mov	r6, r0
 800075a:	2214      	movs	r2, #20
 800075c:	2100      	movs	r1, #0
 800075e:	a803      	add	r0, sp, #12
 8000760:	f001 fa3a 	bl	8001bd8 <memset>
 8000764:	2218      	movs	r2, #24
 8000766:	2100      	movs	r1, #0
 8000768:	a808      	add	r0, sp, #32
 800076a:	f001 fa35 	bl	8001bd8 <memset>
 800076e:	6832      	ldr	r2, [r6, #0]
 8000770:	4b2a      	ldr	r3, [pc, #168]	@ (800081c <HAL_I2S_MspInit+0xc8>)
 8000772:	429a      	cmp	r2, r3
 8000774:	d150      	bne.n	8000818 <HAL_I2S_MspInit+0xc4>
 8000776:	2301      	movs	r3, #1
 8000778:	9308      	str	r3, [sp, #32]
 800077a:	22c0      	movs	r2, #192	@ 0xc0
 800077c:	2310      	movs	r3, #16
 800077e:	e9cd 3209 	strd	r3, r2, [sp, #36]	@ 0x24
 8000782:	a808      	add	r0, sp, #32
 8000784:	2302      	movs	r3, #2
 8000786:	930b      	str	r3, [sp, #44]	@ 0x2c
 8000788:	f001 f958 	bl	8001a3c <HAL_RCCEx_PeriphCLKConfig>
 800078c:	b108      	cbz	r0, 8000792 <HAL_I2S_MspInit+0x3e>
 800078e:	f000 f8ab 	bl	80008e8 <Error_Handler>
 8000792:	4b23      	ldr	r3, [pc, #140]	@ (8000820 <HAL_I2S_MspInit+0xcc>)
 8000794:	4823      	ldr	r0, [pc, #140]	@ (8000824 <HAL_I2S_MspInit+0xd0>)
 8000796:	4c24      	ldr	r4, [pc, #144]	@ (8000828 <HAL_I2S_MspInit+0xd4>)
 8000798:	2500      	movs	r5, #0
 800079a:	9501      	str	r5, [sp, #4]
 800079c:	6c5a      	ldr	r2, [r3, #68]	@ 0x44
 800079e:	f442 5280 	orr.w	r2, r2, #4096	@ 0x1000
 80007a2:	645a      	str	r2, [r3, #68]	@ 0x44
 80007a4:	6c5a      	ldr	r2, [r3, #68]	@ 0x44
 80007a6:	f402 5280 	and.w	r2, r2, #4096	@ 0x1000
 80007aa:	9201      	str	r2, [sp, #4]
 80007ac:	9a01      	ldr	r2, [sp, #4]
 80007ae:	9502      	str	r5, [sp, #8]
 80007b0:	6b1a      	ldr	r2, [r3, #48]	@ 0x30
 80007b2:	f042 0201 	orr.w	r2, r2, #1
 80007b6:	631a      	str	r2, [r3, #48]	@ 0x30
 80007b8:	6b1b      	ldr	r3, [r3, #48]	@ 0x30
 80007ba:	f003 0301 	and.w	r3, r3, #1
 80007be:	9302      	str	r3, [sp, #8]
 80007c0:	9b02      	ldr	r3, [sp, #8]
 80007c2:	22b0      	movs	r2, #176	@ 0xb0
 80007c4:	2302      	movs	r3, #2
 80007c6:	e9cd 2303 	strd	r2, r3, [sp, #12]
 80007ca:	a903      	add	r1, sp, #12
 80007cc:	2305      	movs	r3, #5
 80007ce:	9307      	str	r3, [sp, #28]
 80007d0:	e9cd 5505 	strd	r5, r5, [sp, #20]
 80007d4:	f000 fb2c 	bl	8000e30 <HAL_GPIO_Init>
 80007d8:	4914      	ldr	r1, [pc, #80]	@ (800082c <HAL_I2S_MspInit+0xd8>)
 80007da:	f04f 6380 	mov.w	r3, #67108864	@ 0x4000000
 80007de:	e9c4 1300 	strd	r1, r3, [r4]
 80007e2:	2340      	movs	r3, #64	@ 0x40
 80007e4:	f44f 6080 	mov.w	r0, #1024	@ 0x400
 80007e8:	e9c4 3502 	strd	r3, r5, [r4, #8]
 80007ec:	f44f 6300 	mov.w	r3, #2048	@ 0x800
 80007f0:	e9c4 0304 	strd	r0, r3, [r4, #16]
 80007f4:	f44f 5c00 	mov.w	ip, #8192	@ 0x2000
 80007f8:	f44f 7380 	mov.w	r3, #256	@ 0x100
 80007fc:	e9c4 c306 	strd	ip, r3, [r4, #24]
 8000800:	4620      	mov	r0, r4
 8000802:	f44f 3340 	mov.w	r3, #196608	@ 0x30000
 8000806:	e9c4 3508 	strd	r3, r5, [r4, #32]
 800080a:	f000 f99b 	bl	8000b44 <HAL_DMA_Init>
 800080e:	b108      	cbz	r0, 8000814 <HAL_I2S_MspInit+0xc0>
 8000810:	f000 f86a 	bl	80008e8 <Error_Handler>
 8000814:	63b4      	str	r4, [r6, #56]	@ 0x38
 8000816:	63a6      	str	r6, [r4, #56]	@ 0x38
 8000818:	b00e      	add	sp, #56	@ 0x38
 800081a:	bd70      	pop	{r4, r5, r6, pc}
 800081c:	40013000 	.word	0x40013000
 8000820:	40023800 	.word	0x40023800
 8000824:	40020000 	.word	0x40020000
 8000828:	20000298 	.word	0x20000298
 800082c:	40026440 	.word	0x40026440

08000830 <SystemClock_Config>:
 8000830:	b510      	push	{r4, lr}
 8000832:	b094      	sub	sp, #80	@ 0x50
 8000834:	2214      	movs	r2, #20
 8000836:	2100      	movs	r1, #0
 8000838:	a809      	add	r0, sp, #36	@ 0x24
 800083a:	f001 f9cd 	bl	8001bd8 <memset>
 800083e:	2214      	movs	r2, #20
 8000840:	2100      	movs	r1, #0
 8000842:	a803      	add	r0, sp, #12
 8000844:	f001 f9c8 	bl	8001bd8 <memset>
 8000848:	2300      	movs	r3, #0
 800084a:	4a1e      	ldr	r2, [pc, #120]	@ (80008c4 <SystemClock_Config+0x94>)
 800084c:	9301      	str	r3, [sp, #4]
 800084e:	6c11      	ldr	r1, [r2, #64]	@ 0x40
 8000850:	f041 5180 	orr.w	r1, r1, #268435456	@ 0x10000000
 8000854:	6411      	str	r1, [r2, #64]	@ 0x40
 8000856:	6c12      	ldr	r2, [r2, #64]	@ 0x40
 8000858:	f002 5280 	and.w	r2, r2, #268435456	@ 0x10000000
 800085c:	9201      	str	r2, [sp, #4]
 800085e:	9a01      	ldr	r2, [sp, #4]
 8000860:	4a19      	ldr	r2, [pc, #100]	@ (80008c8 <SystemClock_Config+0x98>)
 8000862:	9302      	str	r3, [sp, #8]
 8000864:	6811      	ldr	r1, [r2, #0]
 8000866:	f441 4140 	orr.w	r1, r1, #49152	@ 0xc000
 800086a:	6011      	str	r1, [r2, #0]
 800086c:	6812      	ldr	r2, [r2, #0]
 800086e:	2402      	movs	r4, #2
 8000870:	f402 4240 	and.w	r2, r2, #49152	@ 0xc000
 8000874:	2008      	movs	r0, #8
 8000876:	e9cd 430e 	strd	r4, r3, [sp, #56]	@ 0x38
 800087a:	9202      	str	r2, [sp, #8]
 800087c:	2364      	movs	r3, #100	@ 0x64
 800087e:	e9cd 0310 	strd	r0, r3, [sp, #64]	@ 0x40
 8000882:	9a02      	ldr	r2, [sp, #8]
 8000884:	9408      	str	r4, [sp, #32]
 8000886:	2101      	movs	r1, #1
 8000888:	2210      	movs	r2, #16
 800088a:	2304      	movs	r3, #4
 800088c:	a808      	add	r0, sp, #32
 800088e:	e9cd 120b 	strd	r1, r2, [sp, #44]	@ 0x2c
 8000892:	9412      	str	r4, [sp, #72]	@ 0x48
 8000894:	9313      	str	r3, [sp, #76]	@ 0x4c
 8000896:	f000 fe5b 	bl	8001550 <HAL_RCC_OscConfig>
 800089a:	b108      	cbz	r0, 80008a0 <SystemClock_Config+0x70>
 800089c:	b672      	cpsid	i
 800089e:	e7fe      	b.n	800089e <SystemClock_Config+0x6e>
 80008a0:	230f      	movs	r3, #15
 80008a2:	e9cd 3403 	strd	r3, r4, [sp, #12]
 80008a6:	f44f 5380 	mov.w	r3, #4096	@ 0x1000
 80008aa:	e9cd 3006 	strd	r3, r0, [sp, #24]
 80008ae:	9005      	str	r0, [sp, #20]
 80008b0:	2103      	movs	r1, #3
 80008b2:	a803      	add	r0, sp, #12
 80008b4:	f001 f828 	bl	8001908 <HAL_RCC_ClockConfig>
 80008b8:	b108      	cbz	r0, 80008be <SystemClock_Config+0x8e>
 80008ba:	b672      	cpsid	i
 80008bc:	e7fe      	b.n	80008bc <SystemClock_Config+0x8c>
 80008be:	b014      	add	sp, #80	@ 0x50
 80008c0:	bd10      	pop	{r4, pc}
 80008c2:	bf00      	nop
 80008c4:	40023800 	.word	0x40023800
 80008c8:	40007000 	.word	0x40007000

080008cc <main>:
 80008cc:	b508      	push	{r3, lr}
 80008ce:	f000 f891 	bl	80009f4 <HAL_Init>
 80008d2:	f7ff ffad 	bl	8000830 <SystemClock_Config>
 80008d6:	f7ff ff0d 	bl	80006f4 <MX_GPIO_Init>
 80008da:	f7ff fdf5 	bl	80004c8 <MX_DMA_Init>
 80008de:	f7ff ff1b 	bl	8000718 <MX_I2S1_Init>
 80008e2:	f7ff fe0b 	bl	80004fc <eko_tiger_p61_rhythm_setup>
 80008e6:	e7fe      	b.n	80008e6 <main+0x1a>

080008e8 <Error_Handler>:
 80008e8:	b672      	cpsid	i
 80008ea:	e7fe      	b.n	80008ea <Error_Handler+0x2>

080008ec <HAL_MspInit>:
 80008ec:	b082      	sub	sp, #8
 80008ee:	4b0c      	ldr	r3, [pc, #48]	@ (8000920 <HAL_MspInit+0x34>)
 80008f0:	2100      	movs	r1, #0
 80008f2:	9100      	str	r1, [sp, #0]
 80008f4:	6c5a      	ldr	r2, [r3, #68]	@ 0x44
 80008f6:	f442 4280 	orr.w	r2, r2, #16384	@ 0x4000
 80008fa:	645a      	str	r2, [r3, #68]	@ 0x44
 80008fc:	6c5a      	ldr	r2, [r3, #68]	@ 0x44
 80008fe:	f402 4280 	and.w	r2, r2, #16384	@ 0x4000
 8000902:	9200      	str	r2, [sp, #0]
 8000904:	9a00      	ldr	r2, [sp, #0]
 8000906:	9101      	str	r1, [sp, #4]
 8000908:	6c1a      	ldr	r2, [r3, #64]	@ 0x40
 800090a:	f042 5280 	orr.w	r2, r2, #268435456	@ 0x10000000
 800090e:	641a      	str	r2, [r3, #64]	@ 0x40
 8000910:	6c1b      	ldr	r3, [r3, #64]	@ 0x40
 8000912:	f003 5380 	and.w	r3, r3, #268435456	@ 0x10000000
 8000916:	9301      	str	r3, [sp, #4]
 8000918:	9b01      	ldr	r3, [sp, #4]
 800091a:	b002      	add	sp, #8
 800091c:	4770      	bx	lr
 800091e:	bf00      	nop
 8000920:	40023800 	.word	0x40023800

08000924 <NMI_Handler>:
 8000924:	e7fe      	b.n	8000924 <NMI_Handler>

08000926 <HardFault_Handler>:
 8000926:	e7fe      	b.n	8000926 <HardFault_Handler>

08000928 <MemManage_Handler>:
 8000928:	e7fe      	b.n	8000928 <MemManage_Handler>

0800092a <BusFault_Handler>:
 800092a:	e7fe      	b.n	800092a <BusFault_Handler>

0800092c <UsageFault_Handler>:
 800092c:	e7fe      	b.n	800092c <UsageFault_Handler>

0800092e <SVC_Handler>:
 800092e:	4770      	bx	lr

08000930 <DebugMon_Handler>:
 8000930:	4770      	bx	lr

08000932 <PendSV_Handler>:
 8000932:	4770      	bx	lr

08000934 <SysTick_Handler>:
 8000934:	f000 b878 	b.w	8000a28 <HAL_IncTick>

08000938 <DMA2_Stream2_IRQHandler>:
 8000938:	4801      	ldr	r0, [pc, #4]	@ (8000940 <DMA2_Stream2_IRQHandler+0x8>)
 800093a:	f000 b9bb 	b.w	8000cb4 <HAL_DMA_IRQHandler>
 800093e:	bf00      	nop
 8000940:	20000298 	.word	0x20000298

08000944 <SystemInit>:
 8000944:	4a03      	ldr	r2, [pc, #12]	@ (8000954 <SystemInit+0x10>)
 8000946:	f8d2 3088 	ldr.w	r3, [r2, #136]	@ 0x88
 800094a:	f443 0370 	orr.w	r3, r3, #15728640	@ 0xf00000
 800094e:	f8c2 3088 	str.w	r3, [r2, #136]	@ 0x88
 8000952:	4770      	bx	lr
 8000954:	e000ed00 	.word	0xe000ed00

08000958 <Reset_Handler>:
 8000958:	f8df d034 	ldr.w	sp, [pc, #52]	@ 8000990 <LoopFillZerobss+0xe>
 800095c:	f7ff fff2 	bl	8000944 <SystemInit>
 8000960:	480c      	ldr	r0, [pc, #48]	@ (8000994 <LoopFillZerobss+0x12>)
 8000962:	490d      	ldr	r1, [pc, #52]	@ (8000998 <LoopFillZerobss+0x16>)
 8000964:	4a0d      	ldr	r2, [pc, #52]	@ (800099c <LoopFillZerobss+0x1a>)
 8000966:	2300      	movs	r3, #0
 8000968:	e002      	b.n	8000970 <LoopCopyDataInit>

0800096a <CopyDataInit>:
 800096a:	58d4      	ldr	r4, [r2, r3]
 800096c:	50c4      	str	r4, [r0, r3]
 800096e:	3304      	adds	r3, #4

08000970 <LoopCopyDataInit>:
 8000970:	18c4      	adds	r4, r0, r3
 8000972:	428c      	cmp	r4, r1
 8000974:	d3f9      	bcc.n	800096a <CopyDataInit>
 8000976:	4a0a      	ldr	r2, [pc, #40]	@ (80009a0 <LoopFillZerobss+0x1e>)
 8000978:	4c0a      	ldr	r4, [pc, #40]	@ (80009a4 <LoopFillZerobss+0x22>)
 800097a:	2300      	movs	r3, #0
 800097c:	e001      	b.n	8000982 <LoopFillZerobss>

0800097e <FillZerobss>:
 800097e:	6013      	str	r3, [r2, #0]
 8000980:	3204      	adds	r2, #4

08000982 <LoopFillZerobss>:
 8000982:	42a2      	cmp	r2, r4
 8000984:	d3fb      	bcc.n	800097e <FillZerobss>
 8000986:	f001 f92f 	bl	8001be8 <__libc_init_array>
 800098a:	f7ff ff9f 	bl	80008cc <main>
 800098e:	4770      	bx	lr
 8000990:	20020000 	.word	0x20020000
 8000994:	20000000 	.word	0x20000000
 8000998:	20000068 	.word	0x20000068
 800099c:	08014c1c 	.word	0x08014c1c
 80009a0:	20000068 	.word	0x20000068
 80009a4:	20000344 	.word	0x20000344

080009a8 <ADC_IRQHandler>:
 80009a8:	e7fe      	b.n	80009a8 <ADC_IRQHandler>
	...

080009ac <HAL_InitTick>:
 80009ac:	b538      	push	{r3, r4, r5, lr}
 80009ae:	4b0e      	ldr	r3, [pc, #56]	@ (80009e8 <HAL_InitTick+0x3c>)
 80009b0:	781a      	ldrb	r2, [r3, #0]
 80009b2:	f44f 737a 	mov.w	r3, #1000	@ 0x3e8
 80009b6:	fbb3 f3f2 	udiv	r3, r3, r2
 80009ba:	4a0c      	ldr	r2, [pc, #48]	@ (80009ec <HAL_InitTick+0x40>)
 80009bc:	4605      	mov	r5, r0
 80009be:	6810      	ldr	r0, [r2, #0]
 80009c0:	fbb0 f0f3 	udiv	r0, r0, r3
 80009c4:	f000 f894 	bl	8000af0 <HAL_SYSTICK_Config>
 80009c8:	4604      	mov	r4, r0
 80009ca:	b958      	cbnz	r0, 80009e4 <HAL_InitTick+0x38>
 80009cc:	2d0f      	cmp	r5, #15
 80009ce:	d809      	bhi.n	80009e4 <HAL_InitTick+0x38>
 80009d0:	4602      	mov	r2, r0
 80009d2:	4629      	mov	r1, r5
 80009d4:	f04f 30ff 	mov.w	r0, #4294967295
 80009d8:	f000 f84a 	bl	8000a70 <HAL_NVIC_SetPriority>
 80009dc:	4b04      	ldr	r3, [pc, #16]	@ (80009f0 <HAL_InitTick+0x44>)
 80009de:	4620      	mov	r0, r4
 80009e0:	601d      	str	r5, [r3, #0]
 80009e2:	bd38      	pop	{r3, r4, r5, pc}
 80009e4:	2001      	movs	r0, #1
 80009e6:	e7fc      	b.n	80009e2 <HAL_InitTick+0x36>
 80009e8:	20000060 	.word	0x20000060
 80009ec:	2000005c 	.word	0x2000005c
 80009f0:	20000064 	.word	0x20000064

080009f4 <HAL_Init>:
 80009f4:	b508      	push	{r3, lr}
 80009f6:	4b0b      	ldr	r3, [pc, #44]	@ (8000a24 <HAL_Init+0x30>)
 80009f8:	681a      	ldr	r2, [r3, #0]
 80009fa:	f442 7200 	orr.w	r2, r2, #512	@ 0x200
 80009fe:	601a      	str	r2, [r3, #0]
 8000a00:	681a      	ldr	r2, [r3, #0]
 8000a02:	f442 6280 	orr.w	r2, r2, #1024	@ 0x400
 8000a06:	601a      	str	r2, [r3, #0]
 8000a08:	681a      	ldr	r2, [r3, #0]
 8000a0a:	f442 7280 	orr.w	r2, r2, #256	@ 0x100
 8000a0e:	601a      	str	r2, [r3, #0]
 8000a10:	2003      	movs	r0, #3
 8000a12:	f000 f81b 	bl	8000a4c <HAL_NVIC_SetPriorityGrouping>
 8000a16:	200f      	movs	r0, #15
 8000a18:	f7ff ffc8 	bl	80009ac <HAL_InitTick>
 8000a1c:	f7ff ff66 	bl	80008ec <HAL_MspInit>
 8000a20:	2000      	movs	r0, #0
 8000a22:	bd08      	pop	{r3, pc}
 8000a24:	40023c00 	.word	0x40023c00

08000a28 <HAL_IncTick>:
 8000a28:	4a03      	ldr	r2, [pc, #12]	@ (8000a38 <HAL_IncTick+0x10>)
 8000a2a:	4b04      	ldr	r3, [pc, #16]	@ (8000a3c <HAL_IncTick+0x14>)
 8000a2c:	6811      	ldr	r1, [r2, #0]
 8000a2e:	781b      	ldrb	r3, [r3, #0]
 8000a30:	440b      	add	r3, r1
 8000a32:	6013      	str	r3, [r2, #0]
 8000a34:	4770      	bx	lr
 8000a36:	bf00      	nop
 8000a38:	20000340 	.word	0x20000340
 8000a3c:	20000060 	.word	0x20000060

08000a40 <HAL_GetTick>:
 8000a40:	4b01      	ldr	r3, [pc, #4]	@ (8000a48 <HAL_GetTick+0x8>)
 8000a42:	6818      	ldr	r0, [r3, #0]
 8000a44:	4770      	bx	lr
 8000a46:	bf00      	nop
 8000a48:	20000340 	.word	0x20000340

08000a4c <HAL_NVIC_SetPriorityGrouping>:
 8000a4c:	4907      	ldr	r1, [pc, #28]	@ (8000a6c <HAL_NVIC_SetPriorityGrouping+0x20>)
 8000a4e:	68ca      	ldr	r2, [r1, #12]
 8000a50:	f422 62e0 	bic.w	r2, r2, #1792	@ 0x700
 8000a54:	0203      	lsls	r3, r0, #8
 8000a56:	0412      	lsls	r2, r2, #16
 8000a58:	f403 63e0 	and.w	r3, r3, #1792	@ 0x700
 8000a5c:	0c12      	lsrs	r2, r2, #16
 8000a5e:	4313      	orrs	r3, r2
 8000a60:	f043 63bf 	orr.w	r3, r3, #100139008	@ 0x5f80000
 8000a64:	f443 3300 	orr.w	r3, r3, #131072	@ 0x20000
 8000a68:	60cb      	str	r3, [r1, #12]
 8000a6a:	4770      	bx	lr
 8000a6c:	e000ed00 	.word	0xe000ed00

08000a70 <HAL_NVIC_SetPriority>:
 8000a70:	4b16      	ldr	r3, [pc, #88]	@ (8000acc <HAL_NVIC_SetPriority+0x5c>)
 8000a72:	b530      	push	{r4, r5, lr}
 8000a74:	68dc      	ldr	r4, [r3, #12]
 8000a76:	f3c4 2402 	ubfx	r4, r4, #8, #3
 8000a7a:	f1c4 0307 	rsb	r3, r4, #7
 8000a7e:	1d25      	adds	r5, r4, #4
 8000a80:	2b04      	cmp	r3, #4
 8000a82:	bf28      	it	cs
 8000a84:	2304      	movcs	r3, #4
 8000a86:	2d06      	cmp	r5, #6
 8000a88:	f04f 35ff 	mov.w	r5, #4294967295
 8000a8c:	bf8c      	ite	hi
 8000a8e:	3c03      	subhi	r4, #3
 8000a90:	2400      	movls	r4, #0
 8000a92:	fa05 f303 	lsl.w	r3, r5, r3
 8000a96:	ea21 0303 	bic.w	r3, r1, r3
 8000a9a:	40a5      	lsls	r5, r4
 8000a9c:	ea22 0205 	bic.w	r2, r2, r5
 8000aa0:	40a3      	lsls	r3, r4
 8000aa2:	2800      	cmp	r0, #0
 8000aa4:	ea43 0302 	orr.w	r3, r3, r2
 8000aa8:	bfac      	ite	ge
 8000aaa:	f100 4060 	addge.w	r0, r0, #3758096384	@ 0xe0000000
 8000aae:	4a08      	ldrlt	r2, [pc, #32]	@ (8000ad0 <HAL_NVIC_SetPriority+0x60>)
 8000ab0:	ea4f 1303 	mov.w	r3, r3, lsl #4
 8000ab4:	bfb8      	it	lt
 8000ab6:	f000 000f 	andlt.w	r0, r0, #15
 8000aba:	b2db      	uxtb	r3, r3
 8000abc:	bfaa      	itet	ge
 8000abe:	f500 4061 	addge.w	r0, r0, #57600	@ 0xe100
 8000ac2:	5413      	strblt	r3, [r2, r0]
 8000ac4:	f880 3300 	strbge.w	r3, [r0, #768]	@ 0x300
 8000ac8:	bd30      	pop	{r4, r5, pc}
 8000aca:	bf00      	nop
 8000acc:	e000ed00 	.word	0xe000ed00
 8000ad0:	e000ed14 	.word	0xe000ed14

08000ad4 <HAL_NVIC_EnableIRQ>:
 8000ad4:	2800      	cmp	r0, #0
 8000ad6:	db07      	blt.n	8000ae8 <HAL_NVIC_EnableIRQ+0x14>
 8000ad8:	4a04      	ldr	r2, [pc, #16]	@ (8000aec <HAL_NVIC_EnableIRQ+0x18>)
 8000ada:	0941      	lsrs	r1, r0, #5
 8000adc:	2301      	movs	r3, #1
 8000ade:	f000 001f 	and.w	r0, r0, #31
 8000ae2:	4083      	lsls	r3, r0
 8000ae4:	f842 3021 	str.w	r3, [r2, r1, lsl #2]
 8000ae8:	4770      	bx	lr
 8000aea:	bf00      	nop
 8000aec:	e000e100 	.word	0xe000e100

08000af0 <HAL_SYSTICK_Config>:
 8000af0:	3801      	subs	r0, #1
 8000af2:	f1b0 7f80 	cmp.w	r0, #16777216	@ 0x1000000
 8000af6:	d20b      	bcs.n	8000b10 <HAL_SYSTICK_Config+0x20>
 8000af8:	f04f 23e0 	mov.w	r3, #3758153728	@ 0xe000e000
 8000afc:	4a05      	ldr	r2, [pc, #20]	@ (8000b14 <HAL_SYSTICK_Config+0x24>)
 8000afe:	6158      	str	r0, [r3, #20]
 8000b00:	21f0      	movs	r1, #240	@ 0xf0
 8000b02:	f882 1023 	strb.w	r1, [r2, #35]	@ 0x23
 8000b06:	2000      	movs	r0, #0
 8000b08:	2207      	movs	r2, #7
 8000b0a:	6198      	str	r0, [r3, #24]
 8000b0c:	611a      	str	r2, [r3, #16]
 8000b0e:	4770      	bx	lr
 8000b10:	2001      	movs	r0, #1
 8000b12:	4770      	bx	lr
 8000b14:	e000ed00 	.word	0xe000ed00

08000b18 <DMA_CalcBaseAndBitshift>:
 8000b18:	6803      	ldr	r3, [r0, #0]
 8000b1a:	b510      	push	{r4, lr}
 8000b1c:	4c08      	ldr	r4, [pc, #32]	@ (8000b40 <DMA_CalcBaseAndBitshift+0x28>)
 8000b1e:	4602      	mov	r2, r0
 8000b20:	b2d9      	uxtb	r1, r3
 8000b22:	3910      	subs	r1, #16
 8000b24:	2018      	movs	r0, #24
 8000b26:	fbb1 f0f0 	udiv	r0, r1, r0
 8000b2a:	5c20      	ldrb	r0, [r4, r0]
 8000b2c:	65d0      	str	r0, [r2, #92]	@ 0x5c
 8000b2e:	f423 707f 	bic.w	r0, r3, #1020	@ 0x3fc
 8000b32:	f020 0003 	bic.w	r0, r0, #3
 8000b36:	295f      	cmp	r1, #95	@ 0x5f
 8000b38:	bf88      	it	hi
 8000b3a:	3004      	addhi	r0, #4
 8000b3c:	6590      	str	r0, [r2, #88]	@ 0x58
 8000b3e:	bd10      	pop	{r4, pc}
 8000b40:	08014c02 	.word	0x08014c02

08000b44 <HAL_DMA_Init>:
 8000b44:	b570      	push	{r4, r5, r6, lr}
 8000b46:	4604      	mov	r4, r0
 8000b48:	f7ff ff7a 	bl	8000a40 <HAL_GetTick>
 8000b4c:	4605      	mov	r5, r0
 8000b4e:	2c00      	cmp	r4, #0
 8000b50:	d060      	beq.n	8000c14 <HAL_DMA_Init+0xd0>
 8000b52:	2302      	movs	r3, #2
 8000b54:	f884 3035 	strb.w	r3, [r4, #53]	@ 0x35
 8000b58:	6822      	ldr	r2, [r4, #0]
 8000b5a:	2300      	movs	r3, #0
 8000b5c:	f884 3034 	strb.w	r3, [r4, #52]	@ 0x34
 8000b60:	6813      	ldr	r3, [r2, #0]
 8000b62:	f023 0301 	bic.w	r3, r3, #1
 8000b66:	6013      	str	r3, [r2, #0]
 8000b68:	6822      	ldr	r2, [r4, #0]
 8000b6a:	6813      	ldr	r3, [r2, #0]
 8000b6c:	07d8      	lsls	r0, r3, #31
 8000b6e:	d42e      	bmi.n	8000bce <HAL_DMA_Init+0x8a>
 8000b70:	6813      	ldr	r3, [r2, #0]
 8000b72:	4832      	ldr	r0, [pc, #200]	@ (8000c3c <HAL_DMA_Init+0xf8>)
 8000b74:	69a1      	ldr	r1, [r4, #24]
 8000b76:	4018      	ands	r0, r3
 8000b78:	e9d4 3501 	ldrd	r3, r5, [r4, #4]
 8000b7c:	432b      	orrs	r3, r5
 8000b7e:	68e5      	ldr	r5, [r4, #12]
 8000b80:	432b      	orrs	r3, r5
 8000b82:	6925      	ldr	r5, [r4, #16]
 8000b84:	432b      	orrs	r3, r5
 8000b86:	6965      	ldr	r5, [r4, #20]
 8000b88:	432b      	orrs	r3, r5
 8000b8a:	69e5      	ldr	r5, [r4, #28]
 8000b8c:	430b      	orrs	r3, r1
 8000b8e:	432b      	orrs	r3, r5
 8000b90:	6a25      	ldr	r5, [r4, #32]
 8000b92:	432b      	orrs	r3, r5
 8000b94:	4303      	orrs	r3, r0
 8000b96:	6a60      	ldr	r0, [r4, #36]	@ 0x24
 8000b98:	2804      	cmp	r0, #4
 8000b9a:	bf02      	ittt	eq
 8000b9c:	e9d4 560b 	ldrdeq	r5, r6, [r4, #44]	@ 0x2c
 8000ba0:	4335      	orreq	r5, r6
 8000ba2:	432b      	orreq	r3, r5
 8000ba4:	6013      	str	r3, [r2, #0]
 8000ba6:	6953      	ldr	r3, [r2, #20]
 8000ba8:	2804      	cmp	r0, #4
 8000baa:	f023 0307 	bic.w	r3, r3, #7
 8000bae:	ea43 0300 	orr.w	r3, r3, r0
 8000bb2:	d135      	bne.n	8000c20 <HAL_DMA_Init+0xdc>
 8000bb4:	6aa0      	ldr	r0, [r4, #40]	@ 0x28
 8000bb6:	6ae5      	ldr	r5, [r4, #44]	@ 0x2c
 8000bb8:	4303      	orrs	r3, r0
 8000bba:	b38d      	cbz	r5, 8000c20 <HAL_DMA_Init+0xdc>
 8000bbc:	b991      	cbnz	r1, 8000be4 <HAL_DMA_Init+0xa0>
 8000bbe:	2801      	cmp	r0, #1
 8000bc0:	d020      	beq.n	8000c04 <HAL_DMA_Init+0xc0>
 8000bc2:	f030 0102 	bics.w	r1, r0, #2
 8000bc6:	d12b      	bne.n	8000c20 <HAL_DMA_Init+0xdc>
 8000bc8:	01e9      	lsls	r1, r5, #7
 8000bca:	d529      	bpl.n	8000c20 <HAL_DMA_Init+0xdc>
 8000bcc:	e01d      	b.n	8000c0a <HAL_DMA_Init+0xc6>
 8000bce:	f7ff ff37 	bl	8000a40 <HAL_GetTick>
 8000bd2:	1b40      	subs	r0, r0, r5
 8000bd4:	2805      	cmp	r0, #5
 8000bd6:	d9c7      	bls.n	8000b68 <HAL_DMA_Init+0x24>
 8000bd8:	2320      	movs	r3, #32
 8000bda:	2003      	movs	r0, #3
 8000bdc:	6563      	str	r3, [r4, #84]	@ 0x54
 8000bde:	f884 0035 	strb.w	r0, [r4, #53]	@ 0x35
 8000be2:	bd70      	pop	{r4, r5, r6, pc}
 8000be4:	f5b1 5f00 	cmp.w	r1, #8192	@ 0x2000
 8000be8:	d116      	bne.n	8000c18 <HAL_DMA_Init+0xd4>
 8000bea:	2803      	cmp	r0, #3
 8000bec:	d818      	bhi.n	8000c20 <HAL_DMA_Init+0xdc>
 8000bee:	a101      	add	r1, pc, #4	@ (adr r1, 8000bf4 <HAL_DMA_Init+0xb0>)
 8000bf0:	f851 f020 	ldr.w	pc, [r1, r0, lsl #2]
 8000bf4:	08000c0b 	.word	0x08000c0b
 8000bf8:	08000bc9 	.word	0x08000bc9
 8000bfc:	08000c0b 	.word	0x08000c0b
 8000c00:	08000c05 	.word	0x08000c05
 8000c04:	f1b5 7fc0 	cmp.w	r5, #25165824	@ 0x1800000
 8000c08:	d10a      	bne.n	8000c20 <HAL_DMA_Init+0xdc>
 8000c0a:	2340      	movs	r3, #64	@ 0x40
 8000c0c:	6563      	str	r3, [r4, #84]	@ 0x54
 8000c0e:	2301      	movs	r3, #1
 8000c10:	f884 3035 	strb.w	r3, [r4, #53]	@ 0x35
 8000c14:	2001      	movs	r0, #1
 8000c16:	e7e4      	b.n	8000be2 <HAL_DMA_Init+0x9e>
 8000c18:	2802      	cmp	r0, #2
 8000c1a:	d9f6      	bls.n	8000c0a <HAL_DMA_Init+0xc6>
 8000c1c:	2803      	cmp	r0, #3
 8000c1e:	d0d3      	beq.n	8000bc8 <HAL_DMA_Init+0x84>
 8000c20:	6153      	str	r3, [r2, #20]
 8000c22:	4620      	mov	r0, r4
 8000c24:	f7ff ff78 	bl	8000b18 <DMA_CalcBaseAndBitshift>
 8000c28:	6de2      	ldr	r2, [r4, #92]	@ 0x5c
 8000c2a:	233f      	movs	r3, #63	@ 0x3f
 8000c2c:	4093      	lsls	r3, r2
 8000c2e:	6083      	str	r3, [r0, #8]
 8000c30:	2000      	movs	r0, #0
 8000c32:	2301      	movs	r3, #1
 8000c34:	6560      	str	r0, [r4, #84]	@ 0x54
 8000c36:	f884 3035 	strb.w	r3, [r4, #53]	@ 0x35
 8000c3a:	e7d2      	b.n	8000be2 <HAL_DMA_Init+0x9e>
 8000c3c:	f010803f 	.word	0xf010803f

08000c40 <HAL_DMA_Start_IT>:
 8000c40:	b570      	push	{r4, r5, r6, lr}
 8000c42:	f890 4034 	ldrb.w	r4, [r0, #52]	@ 0x34
 8000c46:	6d86      	ldr	r6, [r0, #88]	@ 0x58
 8000c48:	2c01      	cmp	r4, #1
 8000c4a:	d030      	beq.n	8000cae <HAL_DMA_Start_IT+0x6e>
 8000c4c:	2401      	movs	r4, #1
 8000c4e:	f880 4034 	strb.w	r4, [r0, #52]	@ 0x34
 8000c52:	f890 4035 	ldrb.w	r4, [r0, #53]	@ 0x35
 8000c56:	2c01      	cmp	r4, #1
 8000c58:	f04f 0400 	mov.w	r4, #0
 8000c5c:	d125      	bne.n	8000caa <HAL_DMA_Start_IT+0x6a>
 8000c5e:	2502      	movs	r5, #2
 8000c60:	f880 5035 	strb.w	r5, [r0, #53]	@ 0x35
 8000c64:	6544      	str	r4, [r0, #84]	@ 0x54
 8000c66:	6804      	ldr	r4, [r0, #0]
 8000c68:	6825      	ldr	r5, [r4, #0]
 8000c6a:	f425 2580 	bic.w	r5, r5, #262144	@ 0x40000
 8000c6e:	6025      	str	r5, [r4, #0]
 8000c70:	6063      	str	r3, [r4, #4]
 8000c72:	6883      	ldr	r3, [r0, #8]
 8000c74:	2b40      	cmp	r3, #64	@ 0x40
 8000c76:	bf0e      	itee	eq
 8000c78:	60a2      	streq	r2, [r4, #8]
 8000c7a:	60a1      	strne	r1, [r4, #8]
 8000c7c:	60e2      	strne	r2, [r4, #12]
 8000c7e:	6dc2      	ldr	r2, [r0, #92]	@ 0x5c
 8000c80:	bf08      	it	eq
 8000c82:	60e1      	streq	r1, [r4, #12]
 8000c84:	233f      	movs	r3, #63	@ 0x3f
 8000c86:	4093      	lsls	r3, r2
 8000c88:	60b3      	str	r3, [r6, #8]
 8000c8a:	6823      	ldr	r3, [r4, #0]
 8000c8c:	f043 0316 	orr.w	r3, r3, #22
 8000c90:	6023      	str	r3, [r4, #0]
 8000c92:	6c03      	ldr	r3, [r0, #64]	@ 0x40
 8000c94:	b11b      	cbz	r3, 8000c9e <HAL_DMA_Start_IT+0x5e>
 8000c96:	6823      	ldr	r3, [r4, #0]
 8000c98:	f043 0308 	orr.w	r3, r3, #8
 8000c9c:	6023      	str	r3, [r4, #0]
 8000c9e:	6823      	ldr	r3, [r4, #0]
 8000ca0:	f043 0301 	orr.w	r3, r3, #1
 8000ca4:	6023      	str	r3, [r4, #0]
 8000ca6:	2000      	movs	r0, #0
 8000ca8:	bd70      	pop	{r4, r5, r6, pc}
 8000caa:	f880 4034 	strb.w	r4, [r0, #52]	@ 0x34
 8000cae:	2002      	movs	r0, #2
 8000cb0:	e7fa      	b.n	8000ca8 <HAL_DMA_Start_IT+0x68>
	...

08000cb4 <HAL_DMA_IRQHandler>:
 8000cb4:	b5f7      	push	{r0, r1, r2, r4, r5, r6, r7, lr}
 8000cb6:	2300      	movs	r3, #0
 8000cb8:	9301      	str	r3, [sp, #4]
 8000cba:	4b5c      	ldr	r3, [pc, #368]	@ (8000e2c <HAL_DMA_IRQHandler+0x178>)
 8000cbc:	6d85      	ldr	r5, [r0, #88]	@ 0x58
 8000cbe:	681f      	ldr	r7, [r3, #0]
 8000cc0:	6dc3      	ldr	r3, [r0, #92]	@ 0x5c
 8000cc2:	682e      	ldr	r6, [r5, #0]
 8000cc4:	2208      	movs	r2, #8
 8000cc6:	409a      	lsls	r2, r3
 8000cc8:	4232      	tst	r2, r6
 8000cca:	4604      	mov	r4, r0
 8000ccc:	d00c      	beq.n	8000ce8 <HAL_DMA_IRQHandler+0x34>
 8000cce:	6801      	ldr	r1, [r0, #0]
 8000cd0:	6808      	ldr	r0, [r1, #0]
 8000cd2:	0740      	lsls	r0, r0, #29
 8000cd4:	d508      	bpl.n	8000ce8 <HAL_DMA_IRQHandler+0x34>
 8000cd6:	6808      	ldr	r0, [r1, #0]
 8000cd8:	f020 0004 	bic.w	r0, r0, #4
 8000cdc:	6008      	str	r0, [r1, #0]
 8000cde:	60aa      	str	r2, [r5, #8]
 8000ce0:	6d62      	ldr	r2, [r4, #84]	@ 0x54
 8000ce2:	f042 0201 	orr.w	r2, r2, #1
 8000ce6:	6562      	str	r2, [r4, #84]	@ 0x54
 8000ce8:	2201      	movs	r2, #1
 8000cea:	409a      	lsls	r2, r3
 8000cec:	4232      	tst	r2, r6
 8000cee:	d008      	beq.n	8000d02 <HAL_DMA_IRQHandler+0x4e>
 8000cf0:	6821      	ldr	r1, [r4, #0]
 8000cf2:	6949      	ldr	r1, [r1, #20]
 8000cf4:	0609      	lsls	r1, r1, #24
 8000cf6:	bf41      	itttt	mi
 8000cf8:	60aa      	strmi	r2, [r5, #8]
 8000cfa:	6d62      	ldrmi	r2, [r4, #84]	@ 0x54
 8000cfc:	f042 0202 	orrmi.w	r2, r2, #2
 8000d00:	6562      	strmi	r2, [r4, #84]	@ 0x54
 8000d02:	2204      	movs	r2, #4
 8000d04:	409a      	lsls	r2, r3
 8000d06:	4232      	tst	r2, r6
 8000d08:	d008      	beq.n	8000d1c <HAL_DMA_IRQHandler+0x68>
 8000d0a:	6821      	ldr	r1, [r4, #0]
 8000d0c:	6809      	ldr	r1, [r1, #0]
 8000d0e:	0788      	lsls	r0, r1, #30
 8000d10:	bf41      	itttt	mi
 8000d12:	60aa      	strmi	r2, [r5, #8]
 8000d14:	6d62      	ldrmi	r2, [r4, #84]	@ 0x54
 8000d16:	f042 0204 	orrmi.w	r2, r2, #4
 8000d1a:	6562      	strmi	r2, [r4, #84]	@ 0x54
 8000d1c:	2210      	movs	r2, #16
 8000d1e:	409a      	lsls	r2, r3
 8000d20:	4232      	tst	r2, r6
 8000d22:	d010      	beq.n	8000d46 <HAL_DMA_IRQHandler+0x92>
 8000d24:	6823      	ldr	r3, [r4, #0]
 8000d26:	6819      	ldr	r1, [r3, #0]
 8000d28:	0709      	lsls	r1, r1, #28
 8000d2a:	d50c      	bpl.n	8000d46 <HAL_DMA_IRQHandler+0x92>
 8000d2c:	60aa      	str	r2, [r5, #8]
 8000d2e:	681a      	ldr	r2, [r3, #0]
 8000d30:	0350      	lsls	r0, r2, #13
 8000d32:	d537      	bpl.n	8000da4 <HAL_DMA_IRQHandler+0xf0>
 8000d34:	681b      	ldr	r3, [r3, #0]
 8000d36:	0319      	lsls	r1, r3, #12
 8000d38:	d401      	bmi.n	8000d3e <HAL_DMA_IRQHandler+0x8a>
 8000d3a:	6c23      	ldr	r3, [r4, #64]	@ 0x40
 8000d3c:	e000      	b.n	8000d40 <HAL_DMA_IRQHandler+0x8c>
 8000d3e:	6ca3      	ldr	r3, [r4, #72]	@ 0x48
 8000d40:	b10b      	cbz	r3, 8000d46 <HAL_DMA_IRQHandler+0x92>
 8000d42:	4620      	mov	r0, r4
 8000d44:	4798      	blx	r3
 8000d46:	6de1      	ldr	r1, [r4, #92]	@ 0x5c
 8000d48:	2220      	movs	r2, #32
 8000d4a:	408a      	lsls	r2, r1
 8000d4c:	4232      	tst	r2, r6
 8000d4e:	d03a      	beq.n	8000dc6 <HAL_DMA_IRQHandler+0x112>
 8000d50:	6823      	ldr	r3, [r4, #0]
 8000d52:	6818      	ldr	r0, [r3, #0]
 8000d54:	06c6      	lsls	r6, r0, #27
 8000d56:	d536      	bpl.n	8000dc6 <HAL_DMA_IRQHandler+0x112>
 8000d58:	60aa      	str	r2, [r5, #8]
 8000d5a:	f894 2035 	ldrb.w	r2, [r4, #53]	@ 0x35
 8000d5e:	2a05      	cmp	r2, #5
 8000d60:	681a      	ldr	r2, [r3, #0]
 8000d62:	d127      	bne.n	8000db4 <HAL_DMA_IRQHandler+0x100>
 8000d64:	f022 0216 	bic.w	r2, r2, #22
 8000d68:	601a      	str	r2, [r3, #0]
 8000d6a:	695a      	ldr	r2, [r3, #20]
 8000d6c:	f022 0280 	bic.w	r2, r2, #128	@ 0x80
 8000d70:	615a      	str	r2, [r3, #20]
 8000d72:	6c22      	ldr	r2, [r4, #64]	@ 0x40
 8000d74:	b90a      	cbnz	r2, 8000d7a <HAL_DMA_IRQHandler+0xc6>
 8000d76:	6ca2      	ldr	r2, [r4, #72]	@ 0x48
 8000d78:	b11a      	cbz	r2, 8000d82 <HAL_DMA_IRQHandler+0xce>
 8000d7a:	681a      	ldr	r2, [r3, #0]
 8000d7c:	f022 0208 	bic.w	r2, r2, #8
 8000d80:	601a      	str	r2, [r3, #0]
 8000d82:	233f      	movs	r3, #63	@ 0x3f
 8000d84:	408b      	lsls	r3, r1
 8000d86:	60ab      	str	r3, [r5, #8]
 8000d88:	2301      	movs	r3, #1
 8000d8a:	f884 3035 	strb.w	r3, [r4, #53]	@ 0x35
 8000d8e:	2300      	movs	r3, #0
 8000d90:	f884 3034 	strb.w	r3, [r4, #52]	@ 0x34
 8000d94:	6d23      	ldr	r3, [r4, #80]	@ 0x50
 8000d96:	2b00      	cmp	r3, #0
 8000d98:	d045      	beq.n	8000e26 <HAL_DMA_IRQHandler+0x172>
 8000d9a:	4620      	mov	r0, r4
 8000d9c:	b003      	add	sp, #12
 8000d9e:	e8bd 40f0 	ldmia.w	sp!, {r4, r5, r6, r7, lr}
 8000da2:	4718      	bx	r3
 8000da4:	681a      	ldr	r2, [r3, #0]
 8000da6:	05d2      	lsls	r2, r2, #23
 8000da8:	bf5e      	ittt	pl
 8000daa:	681a      	ldrpl	r2, [r3, #0]
 8000dac:	f022 0208 	bicpl.w	r2, r2, #8
 8000db0:	601a      	strpl	r2, [r3, #0]
 8000db2:	e7c2      	b.n	8000d3a <HAL_DMA_IRQHandler+0x86>
 8000db4:	0350      	lsls	r0, r2, #13
 8000db6:	d527      	bpl.n	8000e08 <HAL_DMA_IRQHandler+0x154>
 8000db8:	681b      	ldr	r3, [r3, #0]
 8000dba:	0319      	lsls	r1, r3, #12
 8000dbc:	d431      	bmi.n	8000e22 <HAL_DMA_IRQHandler+0x16e>
 8000dbe:	6c63      	ldr	r3, [r4, #68]	@ 0x44
 8000dc0:	b10b      	cbz	r3, 8000dc6 <HAL_DMA_IRQHandler+0x112>
 8000dc2:	4620      	mov	r0, r4
 8000dc4:	4798      	blx	r3
 8000dc6:	6d63      	ldr	r3, [r4, #84]	@ 0x54
 8000dc8:	b36b      	cbz	r3, 8000e26 <HAL_DMA_IRQHandler+0x172>
 8000dca:	6d63      	ldr	r3, [r4, #84]	@ 0x54
 8000dcc:	07da      	lsls	r2, r3, #31
 8000dce:	d519      	bpl.n	8000e04 <HAL_DMA_IRQHandler+0x150>
 8000dd0:	6822      	ldr	r2, [r4, #0]
 8000dd2:	f44f 5316 	mov.w	r3, #9600	@ 0x2580
 8000dd6:	fbb7 f7f3 	udiv	r7, r7, r3
 8000dda:	2305      	movs	r3, #5
 8000ddc:	f884 3035 	strb.w	r3, [r4, #53]	@ 0x35
 8000de0:	6813      	ldr	r3, [r2, #0]
 8000de2:	f023 0301 	bic.w	r3, r3, #1
 8000de6:	6013      	str	r3, [r2, #0]
 8000de8:	9b01      	ldr	r3, [sp, #4]
 8000dea:	3301      	adds	r3, #1
 8000dec:	42bb      	cmp	r3, r7
 8000dee:	9301      	str	r3, [sp, #4]
 8000df0:	d802      	bhi.n	8000df8 <HAL_DMA_IRQHandler+0x144>
 8000df2:	6813      	ldr	r3, [r2, #0]
 8000df4:	07db      	lsls	r3, r3, #31
 8000df6:	d4f7      	bmi.n	8000de8 <HAL_DMA_IRQHandler+0x134>
 8000df8:	2301      	movs	r3, #1
 8000dfa:	f884 3035 	strb.w	r3, [r4, #53]	@ 0x35
 8000dfe:	2300      	movs	r3, #0
 8000e00:	f884 3034 	strb.w	r3, [r4, #52]	@ 0x34
 8000e04:	6ce3      	ldr	r3, [r4, #76]	@ 0x4c
 8000e06:	e7c6      	b.n	8000d96 <HAL_DMA_IRQHandler+0xe2>
 8000e08:	681a      	ldr	r2, [r3, #0]
 8000e0a:	f412 7280 	ands.w	r2, r2, #256	@ 0x100
 8000e0e:	d108      	bne.n	8000e22 <HAL_DMA_IRQHandler+0x16e>
 8000e10:	6819      	ldr	r1, [r3, #0]
 8000e12:	f021 0110 	bic.w	r1, r1, #16
 8000e16:	6019      	str	r1, [r3, #0]
 8000e18:	2301      	movs	r3, #1
 8000e1a:	f884 3035 	strb.w	r3, [r4, #53]	@ 0x35
 8000e1e:	f884 2034 	strb.w	r2, [r4, #52]	@ 0x34
 8000e22:	6be3      	ldr	r3, [r4, #60]	@ 0x3c
 8000e24:	e7cc      	b.n	8000dc0 <HAL_DMA_IRQHandler+0x10c>
 8000e26:	b003      	add	sp, #12
 8000e28:	bdf0      	pop	{r4, r5, r6, r7, pc}
 8000e2a:	bf00      	nop
 8000e2c:	2000005c 	.word	0x2000005c

08000e30 <HAL_GPIO_Init>:
 8000e30:	e92d 4ff7 	stmdb	sp!, {r0, r1, r2, r4, r5, r6, r7, r8, r9, sl, fp, lr}
 8000e34:	f8df 9180 	ldr.w	r9, [pc, #384]	@ 8000fb8 <HAL_GPIO_Init+0x188>
 8000e38:	4a5d      	ldr	r2, [pc, #372]	@ (8000fb0 <HAL_GPIO_Init+0x180>)
 8000e3a:	2300      	movs	r3, #0
 8000e3c:	680d      	ldr	r5, [r1, #0]
 8000e3e:	2401      	movs	r4, #1
 8000e40:	409c      	lsls	r4, r3
 8000e42:	ea04 0605 	and.w	r6, r4, r5
 8000e46:	43ac      	bics	r4, r5
 8000e48:	f040 80a3 	bne.w	8000f92 <HAL_GPIO_Init+0x162>
 8000e4c:	684d      	ldr	r5, [r1, #4]
 8000e4e:	2703      	movs	r7, #3
 8000e50:	f005 0403 	and.w	r4, r5, #3
 8000e54:	ea4f 0843 	mov.w	r8, r3, lsl #1
 8000e58:	fa07 fc08 	lsl.w	ip, r7, r8
 8000e5c:	1e67      	subs	r7, r4, #1
 8000e5e:	2f01      	cmp	r7, #1
 8000e60:	ea6f 0c0c 	mvn.w	ip, ip
 8000e64:	d834      	bhi.n	8000ed0 <HAL_GPIO_Init+0xa0>
 8000e66:	6887      	ldr	r7, [r0, #8]
 8000e68:	ea07 0e0c 	and.w	lr, r7, ip
 8000e6c:	68cf      	ldr	r7, [r1, #12]
 8000e6e:	fa07 f708 	lsl.w	r7, r7, r8
 8000e72:	ea47 070e 	orr.w	r7, r7, lr
 8000e76:	6087      	str	r7, [r0, #8]
 8000e78:	6847      	ldr	r7, [r0, #4]
 8000e7a:	ea27 0e06 	bic.w	lr, r7, r6
 8000e7e:	f3c5 1700 	ubfx	r7, r5, #4, #1
 8000e82:	409f      	lsls	r7, r3
 8000e84:	ea47 070e 	orr.w	r7, r7, lr
 8000e88:	6047      	str	r7, [r0, #4]
 8000e8a:	68c7      	ldr	r7, [r0, #12]
 8000e8c:	ea07 0e0c 	and.w	lr, r7, ip
 8000e90:	688f      	ldr	r7, [r1, #8]
 8000e92:	fa07 f708 	lsl.w	r7, r7, r8
 8000e96:	ea47 070e 	orr.w	r7, r7, lr
 8000e9a:	2c02      	cmp	r4, #2
 8000e9c:	60c7      	str	r7, [r0, #12]
 8000e9e:	d119      	bne.n	8000ed4 <HAL_GPIO_Init+0xa4>
 8000ea0:	ea4f 0ad3 	mov.w	sl, r3, lsr #3
 8000ea4:	eb00 0a8a 	add.w	sl, r0, sl, lsl #2
 8000ea8:	f003 0b07 	and.w	fp, r3, #7
 8000eac:	f8da 7020 	ldr.w	r7, [sl, #32]
 8000eb0:	ea4f 0b8b 	mov.w	fp, fp, lsl #2
 8000eb4:	f04f 0e0f 	mov.w	lr, #15
 8000eb8:	fa0e fe0b 	lsl.w	lr, lr, fp
 8000ebc:	ea27 0e0e 	bic.w	lr, r7, lr
 8000ec0:	690f      	ldr	r7, [r1, #16]
 8000ec2:	fa07 f70b 	lsl.w	r7, r7, fp
 8000ec6:	ea47 070e 	orr.w	r7, r7, lr
 8000eca:	f8ca 7020 	str.w	r7, [sl, #32]
 8000ece:	e001      	b.n	8000ed4 <HAL_GPIO_Init+0xa4>
 8000ed0:	2c03      	cmp	r4, #3
 8000ed2:	d1da      	bne.n	8000e8a <HAL_GPIO_Init+0x5a>
 8000ed4:	6807      	ldr	r7, [r0, #0]
 8000ed6:	fa04 f408 	lsl.w	r4, r4, r8
 8000eda:	ea07 070c 	and.w	r7, r7, ip
 8000ede:	433c      	orrs	r4, r7
 8000ee0:	f415 3f40 	tst.w	r5, #196608	@ 0x30000
 8000ee4:	6004      	str	r4, [r0, #0]
 8000ee6:	d054      	beq.n	8000f92 <HAL_GPIO_Init+0x162>
 8000ee8:	2400      	movs	r4, #0
 8000eea:	9401      	str	r4, [sp, #4]
 8000eec:	f8d9 4044 	ldr.w	r4, [r9, #68]	@ 0x44
 8000ef0:	f444 4480 	orr.w	r4, r4, #16384	@ 0x4000
 8000ef4:	f8c9 4044 	str.w	r4, [r9, #68]	@ 0x44
 8000ef8:	f8d9 4044 	ldr.w	r4, [r9, #68]	@ 0x44
 8000efc:	f023 0703 	bic.w	r7, r3, #3
 8000f00:	f107 4780 	add.w	r7, r7, #1073741824	@ 0x40000000
 8000f04:	f404 4480 	and.w	r4, r4, #16384	@ 0x4000
 8000f08:	f507 379c 	add.w	r7, r7, #79872	@ 0x13800
 8000f0c:	9401      	str	r4, [sp, #4]
 8000f0e:	f003 0c03 	and.w	ip, r3, #3
 8000f12:	9c01      	ldr	r4, [sp, #4]
 8000f14:	f8d7 e008 	ldr.w	lr, [r7, #8]
 8000f18:	ea4f 0c8c 	mov.w	ip, ip, lsl #2
 8000f1c:	240f      	movs	r4, #15
 8000f1e:	fa04 f40c 	lsl.w	r4, r4, ip
 8000f22:	ea2e 0e04 	bic.w	lr, lr, r4
 8000f26:	4c23      	ldr	r4, [pc, #140]	@ (8000fb4 <HAL_GPIO_Init+0x184>)
 8000f28:	42a0      	cmp	r0, r4
 8000f2a:	d039      	beq.n	8000fa0 <HAL_GPIO_Init+0x170>
 8000f2c:	f504 6480 	add.w	r4, r4, #1024	@ 0x400
 8000f30:	42a0      	cmp	r0, r4
 8000f32:	d037      	beq.n	8000fa4 <HAL_GPIO_Init+0x174>
 8000f34:	f504 6480 	add.w	r4, r4, #1024	@ 0x400
 8000f38:	42a0      	cmp	r0, r4
 8000f3a:	d035      	beq.n	8000fa8 <HAL_GPIO_Init+0x178>
 8000f3c:	f504 6480 	add.w	r4, r4, #1024	@ 0x400
 8000f40:	42a0      	cmp	r0, r4
 8000f42:	d033      	beq.n	8000fac <HAL_GPIO_Init+0x17c>
 8000f44:	f504 6480 	add.w	r4, r4, #1024	@ 0x400
 8000f48:	42a0      	cmp	r0, r4
 8000f4a:	bf14      	ite	ne
 8000f4c:	2407      	movne	r4, #7
 8000f4e:	2404      	moveq	r4, #4
 8000f50:	fa04 f40c 	lsl.w	r4, r4, ip
 8000f54:	ea44 040e 	orr.w	r4, r4, lr
 8000f58:	60bc      	str	r4, [r7, #8]
 8000f5a:	6894      	ldr	r4, [r2, #8]
 8000f5c:	43f7      	mvns	r7, r6
 8000f5e:	f415 1f80 	tst.w	r5, #1048576	@ 0x100000
 8000f62:	bf0c      	ite	eq
 8000f64:	403c      	andeq	r4, r7
 8000f66:	4334      	orrne	r4, r6
 8000f68:	6094      	str	r4, [r2, #8]
 8000f6a:	68d4      	ldr	r4, [r2, #12]
 8000f6c:	f415 1f00 	tst.w	r5, #2097152	@ 0x200000
 8000f70:	bf0c      	ite	eq
 8000f72:	403c      	andeq	r4, r7
 8000f74:	4334      	orrne	r4, r6
 8000f76:	60d4      	str	r4, [r2, #12]
 8000f78:	6854      	ldr	r4, [r2, #4]
 8000f7a:	f415 3f00 	tst.w	r5, #131072	@ 0x20000
 8000f7e:	bf0c      	ite	eq
 8000f80:	403c      	andeq	r4, r7
 8000f82:	4334      	orrne	r4, r6
 8000f84:	6054      	str	r4, [r2, #4]
 8000f86:	6814      	ldr	r4, [r2, #0]
 8000f88:	03ed      	lsls	r5, r5, #15
 8000f8a:	bf54      	ite	pl
 8000f8c:	403c      	andpl	r4, r7
 8000f8e:	4334      	orrmi	r4, r6
 8000f90:	6014      	str	r4, [r2, #0]
 8000f92:	3301      	adds	r3, #1
 8000f94:	2b10      	cmp	r3, #16
 8000f96:	f47f af51 	bne.w	8000e3c <HAL_GPIO_Init+0xc>
 8000f9a:	b003      	add	sp, #12
 8000f9c:	e8bd 8ff0 	ldmia.w	sp!, {r4, r5, r6, r7, r8, r9, sl, fp, pc}
 8000fa0:	2400      	movs	r4, #0
 8000fa2:	e7d5      	b.n	8000f50 <HAL_GPIO_Init+0x120>
 8000fa4:	2401      	movs	r4, #1
 8000fa6:	e7d3      	b.n	8000f50 <HAL_GPIO_Init+0x120>
 8000fa8:	2402      	movs	r4, #2
 8000faa:	e7d1      	b.n	8000f50 <HAL_GPIO_Init+0x120>
 8000fac:	2403      	movs	r4, #3
 8000fae:	e7cf      	b.n	8000f50 <HAL_GPIO_Init+0x120>
 8000fb0:	40013c00 	.word	0x40013c00
 8000fb4:	40020000 	.word	0x40020000
 8000fb8:	40023800 	.word	0x40023800

08000fbc <HAL_I2S_Init>:
 8000fbc:	b5f8      	push	{r3, r4, r5, r6, r7, lr}
 8000fbe:	4604      	mov	r4, r0
 8000fc0:	2800      	cmp	r0, #0
 8000fc2:	f000 808c 	beq.w	80010de <HAL_I2S_Init+0x122>
 8000fc6:	f890 3041 	ldrb.w	r3, [r0, #65]	@ 0x41
 8000fca:	f003 02ff 	and.w	r2, r3, #255	@ 0xff
 8000fce:	b92b      	cbnz	r3, 8000fdc <HAL_I2S_Init+0x20>
 8000fd0:	4b45      	ldr	r3, [pc, #276]	@ (80010e8 <HAL_I2S_Init+0x12c>)
 8000fd2:	f880 2040 	strb.w	r2, [r0, #64]	@ 0x40
 8000fd6:	6343      	str	r3, [r0, #52]	@ 0x34
 8000fd8:	f7ff fbbc 	bl	8000754 <HAL_I2S_MspInit>
 8000fdc:	6822      	ldr	r2, [r4, #0]
 8000fde:	2102      	movs	r1, #2
 8000fe0:	f884 1041 	strb.w	r1, [r4, #65]	@ 0x41
 8000fe4:	69d3      	ldr	r3, [r2, #28]
 8000fe6:	f423 637b 	bic.w	r3, r3, #4016	@ 0xfb0
 8000fea:	f023 030f 	bic.w	r3, r3, #15
 8000fee:	61d3      	str	r3, [r2, #28]
 8000ff0:	6963      	ldr	r3, [r4, #20]
 8000ff2:	6211      	str	r1, [r2, #32]
 8000ff4:	428b      	cmp	r3, r1
 8000ff6:	68e2      	ldr	r2, [r4, #12]
 8000ff8:	d073      	beq.n	80010e2 <HAL_I2S_Init+0x126>
 8000ffa:	68a3      	ldr	r3, [r4, #8]
 8000ffc:	2a00      	cmp	r2, #0
 8000ffe:	bf14      	ite	ne
 8001000:	2520      	movne	r5, #32
 8001002:	2510      	moveq	r5, #16
 8001004:	2001      	movs	r0, #1
 8001006:	2b20      	cmp	r3, #32
 8001008:	bf98      	it	ls
 800100a:	006d      	lslls	r5, r5, #1
 800100c:	f000 fdb8 	bl	8001b80 <HAL_RCCEx_GetPeriphCLKFreq>
 8001010:	6923      	ldr	r3, [r4, #16]
 8001012:	6962      	ldr	r2, [r4, #20]
 8001014:	f5b3 7f00 	cmp.w	r3, #512	@ 0x200
 8001018:	d159      	bne.n	80010ce <HAL_I2S_Init+0x112>
 800101a:	68e3      	ldr	r3, [r4, #12]
 800101c:	210a      	movs	r1, #10
 800101e:	2b00      	cmp	r3, #0
 8001020:	d053      	beq.n	80010ca <HAL_I2S_Init+0x10e>
 8001022:	00ad      	lsls	r5, r5, #2
 8001024:	fbb0 f3f5 	udiv	r3, r0, r5
 8001028:	434b      	muls	r3, r1
 800102a:	fbb3 f3f2 	udiv	r3, r3, r2
 800102e:	220a      	movs	r2, #10
 8001030:	3305      	adds	r3, #5
 8001032:	fbb3 f3f2 	udiv	r3, r3, r2
 8001036:	f003 0201 	and.w	r2, r3, #1
 800103a:	085b      	lsrs	r3, r3, #1
 800103c:	1e99      	subs	r1, r3, #2
 800103e:	29fd      	cmp	r1, #253	@ 0xfd
 8001040:	d849      	bhi.n	80010d6 <HAL_I2S_Init+0x11a>
 8001042:	0212      	lsls	r2, r2, #8
 8001044:	431a      	orrs	r2, r3
 8001046:	6923      	ldr	r3, [r4, #16]
 8001048:	6821      	ldr	r1, [r4, #0]
 800104a:	f8df c0ac 	ldr.w	ip, [pc, #172]	@ 80010f8 <HAL_I2S_Init+0x13c>
 800104e:	68e6      	ldr	r6, [r4, #12]
 8001050:	69a5      	ldr	r5, [r4, #24]
 8001052:	431a      	orrs	r2, r3
 8001054:	620a      	str	r2, [r1, #32]
 8001056:	e9d4 2001 	ldrd	r2, r0, [r4, #4]
 800105a:	69cb      	ldr	r3, [r1, #28]
 800105c:	ea42 0700 	orr.w	r7, r2, r0
 8001060:	ea03 030c 	and.w	r3, r3, ip
 8001064:	433b      	orrs	r3, r7
 8001066:	4333      	orrs	r3, r6
 8001068:	432b      	orrs	r3, r5
 800106a:	f443 6300 	orr.w	r3, r3, #2048	@ 0x800
 800106e:	61cb      	str	r3, [r1, #28]
 8001070:	6a23      	ldr	r3, [r4, #32]
 8001072:	2b01      	cmp	r3, #1
 8001074:	d123      	bne.n	80010be <HAL_I2S_Init+0x102>
 8001076:	4b1d      	ldr	r3, [pc, #116]	@ (80010ec <HAL_I2S_Init+0x130>)
 8001078:	6363      	str	r3, [r4, #52]	@ 0x34
 800107a:	4f1d      	ldr	r7, [pc, #116]	@ (80010f0 <HAL_I2S_Init+0x134>)
 800107c:	4b1d      	ldr	r3, [pc, #116]	@ (80010f4 <HAL_I2S_Init+0x138>)
 800107e:	4299      	cmp	r1, r3
 8001080:	bf18      	it	ne
 8001082:	f04f 2740 	movne.w	r7, #1073758208	@ 0x40004000
 8001086:	f5b2 7f00 	cmp.w	r2, #512	@ 0x200
 800108a:	69fb      	ldr	r3, [r7, #28]
 800108c:	ea03 030c 	and.w	r3, r3, ip
 8001090:	61fb      	str	r3, [r7, #28]
 8001092:	f04f 0302 	mov.w	r3, #2
 8001096:	623b      	str	r3, [r7, #32]
 8001098:	bf1c      	itt	ne
 800109a:	fab2 f382 	clzne	r3, r2
 800109e:	095b      	lsrne	r3, r3, #5
 80010a0:	69f9      	ldr	r1, [r7, #28]
 80010a2:	bf14      	ite	ne
 80010a4:	021b      	lslne	r3, r3, #8
 80010a6:	f44f 7380 	moveq.w	r3, #256	@ 0x100
 80010aa:	4330      	orrs	r0, r6
 80010ac:	4318      	orrs	r0, r3
 80010ae:	b289      	uxth	r1, r1
 80010b0:	4328      	orrs	r0, r5
 80010b2:	ea41 0300 	orr.w	r3, r1, r0
 80010b6:	b29b      	uxth	r3, r3
 80010b8:	f443 6300 	orr.w	r3, r3, #2048	@ 0x800
 80010bc:	61fb      	str	r3, [r7, #28]
 80010be:	2000      	movs	r0, #0
 80010c0:	2301      	movs	r3, #1
 80010c2:	6460      	str	r0, [r4, #68]	@ 0x44
 80010c4:	f884 3041 	strb.w	r3, [r4, #65]	@ 0x41
 80010c8:	e00a      	b.n	80010e0 <HAL_I2S_Init+0x124>
 80010ca:	00ed      	lsls	r5, r5, #3
 80010cc:	e7aa      	b.n	8001024 <HAL_I2S_Init+0x68>
 80010ce:	210a      	movs	r1, #10
 80010d0:	fbb0 f3f5 	udiv	r3, r0, r5
 80010d4:	e7a8      	b.n	8001028 <HAL_I2S_Init+0x6c>
 80010d6:	6c63      	ldr	r3, [r4, #68]	@ 0x44
 80010d8:	f043 0310 	orr.w	r3, r3, #16
 80010dc:	6463      	str	r3, [r4, #68]	@ 0x44
 80010de:	2001      	movs	r0, #1
 80010e0:	bdf8      	pop	{r3, r4, r5, r6, r7, pc}
 80010e2:	2200      	movs	r2, #0
 80010e4:	e7ae      	b.n	8001044 <HAL_I2S_Init+0x88>
 80010e6:	bf00      	nop
 80010e8:	080011e5 	.word	0x080011e5
 80010ec:	08001309 	.word	0x08001309
 80010f0:	40003400 	.word	0x40003400
 80010f4:	40003800 	.word	0x40003800
 80010f8:	fffff040 	.word	0xfffff040

080010fc <HAL_I2S_Transmit_DMA>:
 80010fc:	b538      	push	{r3, r4, r5, lr}
 80010fe:	4604      	mov	r4, r0
 8001100:	2900      	cmp	r1, #0
 8001102:	d03a      	beq.n	800117a <HAL_I2S_Transmit_DMA+0x7e>
 8001104:	2a00      	cmp	r2, #0
 8001106:	d038      	beq.n	800117a <HAL_I2S_Transmit_DMA+0x7e>
 8001108:	f890 3041 	ldrb.w	r3, [r0, #65]	@ 0x41
 800110c:	2b01      	cmp	r3, #1
 800110e:	b2d8      	uxtb	r0, r3
 8001110:	d147      	bne.n	80011a2 <HAL_I2S_Transmit_DMA+0xa6>
 8001112:	f894 3040 	ldrb.w	r3, [r4, #64]	@ 0x40
 8001116:	2b01      	cmp	r3, #1
 8001118:	d043      	beq.n	80011a2 <HAL_I2S_Transmit_DMA+0xa6>
 800111a:	2303      	movs	r3, #3
 800111c:	f884 0040 	strb.w	r0, [r4, #64]	@ 0x40
 8001120:	6825      	ldr	r5, [r4, #0]
 8001122:	f884 3041 	strb.w	r3, [r4, #65]	@ 0x41
 8001126:	2300      	movs	r3, #0
 8001128:	6463      	str	r3, [r4, #68]	@ 0x44
 800112a:	69e8      	ldr	r0, [r5, #28]
 800112c:	6261      	str	r1, [r4, #36]	@ 0x24
 800112e:	f000 0007 	and.w	r0, r0, #7
 8001132:	2328      	movs	r3, #40	@ 0x28
 8001134:	40c3      	lsrs	r3, r0
 8001136:	07d8      	lsls	r0, r3, #31
 8001138:	bf44      	itt	mi
 800113a:	0053      	lslmi	r3, r2, #1
 800113c:	b29b      	uxthmi	r3, r3
 800113e:	6ba0      	ldr	r0, [r4, #56]	@ 0x38
 8001140:	bf44      	itt	mi
 8001142:	8523      	strhmi	r3, [r4, #40]	@ 0x28
 8001144:	8563      	strhmi	r3, [r4, #42]	@ 0x2a
 8001146:	4b18      	ldr	r3, [pc, #96]	@ (80011a8 <HAL_I2S_Transmit_DMA+0xac>)
 8001148:	bf5c      	itt	pl
 800114a:	8522      	strhpl	r2, [r4, #40]	@ 0x28
 800114c:	8562      	strhpl	r2, [r4, #42]	@ 0x2a
 800114e:	6403      	str	r3, [r0, #64]	@ 0x40
 8001150:	4b16      	ldr	r3, [pc, #88]	@ (80011ac <HAL_I2S_Transmit_DMA+0xb0>)
 8001152:	63c3      	str	r3, [r0, #60]	@ 0x3c
 8001154:	4b16      	ldr	r3, [pc, #88]	@ (80011b0 <HAL_I2S_Transmit_DMA+0xb4>)
 8001156:	64c3      	str	r3, [r0, #76]	@ 0x4c
 8001158:	8d23      	ldrh	r3, [r4, #40]	@ 0x28
 800115a:	f105 020c 	add.w	r2, r5, #12
 800115e:	b29b      	uxth	r3, r3
 8001160:	f7ff fd6e 	bl	8000c40 <HAL_DMA_Start_IT>
 8001164:	b158      	cbz	r0, 800117e <HAL_I2S_Transmit_DMA+0x82>
 8001166:	6c63      	ldr	r3, [r4, #68]	@ 0x44
 8001168:	f043 0308 	orr.w	r3, r3, #8
 800116c:	6463      	str	r3, [r4, #68]	@ 0x44
 800116e:	2301      	movs	r3, #1
 8001170:	f884 3041 	strb.w	r3, [r4, #65]	@ 0x41
 8001174:	2300      	movs	r3, #0
 8001176:	f884 3040 	strb.w	r3, [r4, #64]	@ 0x40
 800117a:	2001      	movs	r0, #1
 800117c:	e010      	b.n	80011a0 <HAL_I2S_Transmit_DMA+0xa4>
 800117e:	6823      	ldr	r3, [r4, #0]
 8001180:	f884 0040 	strb.w	r0, [r4, #64]	@ 0x40
 8001184:	685a      	ldr	r2, [r3, #4]
 8001186:	0791      	lsls	r1, r2, #30
 8001188:	bf5e      	ittt	pl
 800118a:	685a      	ldrpl	r2, [r3, #4]
 800118c:	f042 0202 	orrpl.w	r2, r2, #2
 8001190:	605a      	strpl	r2, [r3, #4]
 8001192:	69da      	ldr	r2, [r3, #28]
 8001194:	0552      	lsls	r2, r2, #21
 8001196:	d403      	bmi.n	80011a0 <HAL_I2S_Transmit_DMA+0xa4>
 8001198:	69da      	ldr	r2, [r3, #28]
 800119a:	f442 6280 	orr.w	r2, r2, #1024	@ 0x400
 800119e:	61da      	str	r2, [r3, #28]
 80011a0:	bd38      	pop	{r3, r4, r5, pc}
 80011a2:	2002      	movs	r0, #2
 80011a4:	e7fc      	b.n	80011a0 <HAL_I2S_Transmit_DMA+0xa4>
 80011a6:	bf00      	nop
 80011a8:	080011b5 	.word	0x080011b5
 80011ac:	080011bf 	.word	0x080011bf
 80011b0:	080012df 	.word	0x080012df

080011b4 <I2S_DMATxHalfCplt>:
 80011b4:	b508      	push	{r3, lr}
 80011b6:	6b80      	ldr	r0, [r0, #56]	@ 0x38
 80011b8:	f7ff f9ce 	bl	8000558 <HAL_I2S_TxHalfCpltCallback>
 80011bc:	bd08      	pop	{r3, pc}

080011be <I2S_DMATxCplt>:
 80011be:	b508      	push	{r3, lr}
 80011c0:	4603      	mov	r3, r0
 80011c2:	6b80      	ldr	r0, [r0, #56]	@ 0x38
 80011c4:	69da      	ldr	r2, [r3, #28]
 80011c6:	b942      	cbnz	r2, 80011da <I2S_DMATxCplt+0x1c>
 80011c8:	6801      	ldr	r1, [r0, #0]
 80011ca:	684b      	ldr	r3, [r1, #4]
 80011cc:	f023 0302 	bic.w	r3, r3, #2
 80011d0:	604b      	str	r3, [r1, #4]
 80011d2:	2301      	movs	r3, #1
 80011d4:	8542      	strh	r2, [r0, #42]	@ 0x2a
 80011d6:	f880 3041 	strb.w	r3, [r0, #65]	@ 0x41
 80011da:	f7ff fa25 	bl	8000628 <HAL_I2S_TxCpltCallback>
 80011de:	bd08      	pop	{r3, pc}

080011e0 <HAL_I2S_RxCpltCallback>:
 80011e0:	4770      	bx	lr

080011e2 <HAL_I2S_ErrorCallback>:
 80011e2:	4770      	bx	lr

080011e4 <I2S_IRQHandler>:
 80011e4:	b51f      	push	{r0, r1, r2, r3, r4, lr}
 80011e6:	6803      	ldr	r3, [r0, #0]
 80011e8:	689a      	ldr	r2, [r3, #8]
 80011ea:	9201      	str	r2, [sp, #4]
 80011ec:	f890 2041 	ldrb.w	r2, [r0, #65]	@ 0x41
 80011f0:	2a04      	cmp	r2, #4
 80011f2:	4604      	mov	r4, r0
 80011f4:	d136      	bne.n	8001264 <I2S_IRQHandler+0x80>
 80011f6:	9a01      	ldr	r2, [sp, #4]
 80011f8:	07d1      	lsls	r1, r2, #31
 80011fa:	d517      	bpl.n	800122c <I2S_IRQHandler+0x48>
 80011fc:	685a      	ldr	r2, [r3, #4]
 80011fe:	0652      	lsls	r2, r2, #25
 8001200:	d514      	bpl.n	800122c <I2S_IRQHandler+0x48>
 8001202:	6ac2      	ldr	r2, [r0, #44]	@ 0x2c
 8001204:	68d9      	ldr	r1, [r3, #12]
 8001206:	f822 1b02 	strh.w	r1, [r2], #2
 800120a:	62c2      	str	r2, [r0, #44]	@ 0x2c
 800120c:	8e42      	ldrh	r2, [r0, #50]	@ 0x32
 800120e:	3a01      	subs	r2, #1
 8001210:	b292      	uxth	r2, r2
 8001212:	8642      	strh	r2, [r0, #50]	@ 0x32
 8001214:	8e42      	ldrh	r2, [r0, #50]	@ 0x32
 8001216:	b292      	uxth	r2, r2
 8001218:	b942      	cbnz	r2, 800122c <I2S_IRQHandler+0x48>
 800121a:	685a      	ldr	r2, [r3, #4]
 800121c:	f022 0260 	bic.w	r2, r2, #96	@ 0x60
 8001220:	605a      	str	r2, [r3, #4]
 8001222:	2301      	movs	r3, #1
 8001224:	f880 3041 	strb.w	r3, [r0, #65]	@ 0x41
 8001228:	f7ff ffda 	bl	80011e0 <HAL_I2S_RxCpltCallback>
 800122c:	9b01      	ldr	r3, [sp, #4]
 800122e:	0659      	lsls	r1, r3, #25
 8001230:	d518      	bpl.n	8001264 <I2S_IRQHandler+0x80>
 8001232:	6823      	ldr	r3, [r4, #0]
 8001234:	685a      	ldr	r2, [r3, #4]
 8001236:	0692      	lsls	r2, r2, #26
 8001238:	d514      	bpl.n	8001264 <I2S_IRQHandler+0x80>
 800123a:	685a      	ldr	r2, [r3, #4]
 800123c:	f022 0260 	bic.w	r2, r2, #96	@ 0x60
 8001240:	605a      	str	r2, [r3, #4]
 8001242:	2200      	movs	r2, #0
 8001244:	9202      	str	r2, [sp, #8]
 8001246:	68da      	ldr	r2, [r3, #12]
 8001248:	9202      	str	r2, [sp, #8]
 800124a:	689b      	ldr	r3, [r3, #8]
 800124c:	9302      	str	r3, [sp, #8]
 800124e:	9b02      	ldr	r3, [sp, #8]
 8001250:	2301      	movs	r3, #1
 8001252:	f884 3041 	strb.w	r3, [r4, #65]	@ 0x41
 8001256:	6c63      	ldr	r3, [r4, #68]	@ 0x44
 8001258:	f043 0302 	orr.w	r3, r3, #2
 800125c:	6463      	str	r3, [r4, #68]	@ 0x44
 800125e:	4620      	mov	r0, r4
 8001260:	f7ff ffbf 	bl	80011e2 <HAL_I2S_ErrorCallback>
 8001264:	f894 3041 	ldrb.w	r3, [r4, #65]	@ 0x41
 8001268:	2b03      	cmp	r3, #3
 800126a:	d136      	bne.n	80012da <I2S_IRQHandler+0xf6>
 800126c:	9b01      	ldr	r3, [sp, #4]
 800126e:	079b      	lsls	r3, r3, #30
 8001270:	d519      	bpl.n	80012a6 <I2S_IRQHandler+0xc2>
 8001272:	6822      	ldr	r2, [r4, #0]
 8001274:	6853      	ldr	r3, [r2, #4]
 8001276:	0618      	lsls	r0, r3, #24
 8001278:	d515      	bpl.n	80012a6 <I2S_IRQHandler+0xc2>
 800127a:	6a63      	ldr	r3, [r4, #36]	@ 0x24
 800127c:	f833 1b02 	ldrh.w	r1, [r3], #2
 8001280:	60d1      	str	r1, [r2, #12]
 8001282:	6263      	str	r3, [r4, #36]	@ 0x24
 8001284:	8d63      	ldrh	r3, [r4, #42]	@ 0x2a
 8001286:	3b01      	subs	r3, #1
 8001288:	b29b      	uxth	r3, r3
 800128a:	8563      	strh	r3, [r4, #42]	@ 0x2a
 800128c:	8d63      	ldrh	r3, [r4, #42]	@ 0x2a
 800128e:	b29b      	uxth	r3, r3
 8001290:	b94b      	cbnz	r3, 80012a6 <I2S_IRQHandler+0xc2>
 8001292:	6853      	ldr	r3, [r2, #4]
 8001294:	f023 03a0 	bic.w	r3, r3, #160	@ 0xa0
 8001298:	6053      	str	r3, [r2, #4]
 800129a:	2301      	movs	r3, #1
 800129c:	f884 3041 	strb.w	r3, [r4, #65]	@ 0x41
 80012a0:	4620      	mov	r0, r4
 80012a2:	f7ff f9c1 	bl	8000628 <HAL_I2S_TxCpltCallback>
 80012a6:	9b01      	ldr	r3, [sp, #4]
 80012a8:	0719      	lsls	r1, r3, #28
 80012aa:	d516      	bpl.n	80012da <I2S_IRQHandler+0xf6>
 80012ac:	6823      	ldr	r3, [r4, #0]
 80012ae:	685a      	ldr	r2, [r3, #4]
 80012b0:	0692      	lsls	r2, r2, #26
 80012b2:	d512      	bpl.n	80012da <I2S_IRQHandler+0xf6>
 80012b4:	685a      	ldr	r2, [r3, #4]
 80012b6:	f022 02a0 	bic.w	r2, r2, #160	@ 0xa0
 80012ba:	605a      	str	r2, [r3, #4]
 80012bc:	2200      	movs	r2, #0
 80012be:	9203      	str	r2, [sp, #12]
 80012c0:	689b      	ldr	r3, [r3, #8]
 80012c2:	9303      	str	r3, [sp, #12]
 80012c4:	9b03      	ldr	r3, [sp, #12]
 80012c6:	2301      	movs	r3, #1
 80012c8:	f884 3041 	strb.w	r3, [r4, #65]	@ 0x41
 80012cc:	6c63      	ldr	r3, [r4, #68]	@ 0x44
 80012ce:	f043 0304 	orr.w	r3, r3, #4
 80012d2:	6463      	str	r3, [r4, #68]	@ 0x44
 80012d4:	4620      	mov	r0, r4
 80012d6:	f7ff ff84 	bl	80011e2 <HAL_I2S_ErrorCallback>
 80012da:	b004      	add	sp, #16
 80012dc:	bd10      	pop	{r4, pc}

080012de <I2S_DMAError>:
 80012de:	6b80      	ldr	r0, [r0, #56]	@ 0x38
 80012e0:	6802      	ldr	r2, [r0, #0]
 80012e2:	b508      	push	{r3, lr}
 80012e4:	6853      	ldr	r3, [r2, #4]
 80012e6:	f023 0303 	bic.w	r3, r3, #3
 80012ea:	6053      	str	r3, [r2, #4]
 80012ec:	2300      	movs	r3, #0
 80012ee:	8543      	strh	r3, [r0, #42]	@ 0x2a
 80012f0:	8643      	strh	r3, [r0, #50]	@ 0x32
 80012f2:	2301      	movs	r3, #1
 80012f4:	f880 3041 	strb.w	r3, [r0, #65]	@ 0x41
 80012f8:	6c43      	ldr	r3, [r0, #68]	@ 0x44
 80012fa:	f043 0308 	orr.w	r3, r3, #8
 80012fe:	6443      	str	r3, [r0, #68]	@ 0x44
 8001300:	f7ff ff6f 	bl	80011e2 <HAL_I2S_ErrorCallback>
 8001304:	bd08      	pop	{r3, pc}

08001306 <HAL_I2SEx_TxRxCpltCallback>:
 8001306:	4770      	bx	lr

08001308 <HAL_I2SEx_FullDuplex_IRQHandler>:
 8001308:	b510      	push	{r4, lr}
 800130a:	6802      	ldr	r2, [r0, #0]
 800130c:	498e      	ldr	r1, [pc, #568]	@ (8001548 <HAL_I2SEx_FullDuplex_IRQHandler+0x240>)
 800130e:	6893      	ldr	r3, [r2, #8]
 8001310:	b086      	sub	sp, #24
 8001312:	4604      	mov	r4, r0
 8001314:	9300      	str	r3, [sp, #0]
 8001316:	4b8d      	ldr	r3, [pc, #564]	@ (800154c <HAL_I2SEx_FullDuplex_IRQHandler+0x244>)
 8001318:	428a      	cmp	r2, r1
 800131a:	bf18      	it	ne
 800131c:	f04f 2340 	movne.w	r3, #1073758208	@ 0x40004000
 8001320:	6899      	ldr	r1, [r3, #8]
 8001322:	9101      	str	r1, [sp, #4]
 8001324:	6851      	ldr	r1, [r2, #4]
 8001326:	9102      	str	r1, [sp, #8]
 8001328:	6859      	ldr	r1, [r3, #4]
 800132a:	9103      	str	r1, [sp, #12]
 800132c:	6841      	ldr	r1, [r0, #4]
 800132e:	f431 7100 	bics.w	r1, r1, #512	@ 0x200
 8001332:	f040 8093 	bne.w	800145c <HAL_I2SEx_FullDuplex_IRQHandler+0x154>
 8001336:	9b00      	ldr	r3, [sp, #0]
 8001338:	0799      	lsls	r1, r3, #30
 800133a:	d51a      	bpl.n	8001372 <HAL_I2SEx_FullDuplex_IRQHandler+0x6a>
 800133c:	9b02      	ldr	r3, [sp, #8]
 800133e:	061b      	lsls	r3, r3, #24
 8001340:	d517      	bpl.n	8001372 <HAL_I2SEx_FullDuplex_IRQHandler+0x6a>
 8001342:	6a43      	ldr	r3, [r0, #36]	@ 0x24
 8001344:	1c99      	adds	r1, r3, #2
 8001346:	881b      	ldrh	r3, [r3, #0]
 8001348:	6241      	str	r1, [r0, #36]	@ 0x24
 800134a:	60d3      	str	r3, [r2, #12]
 800134c:	8d43      	ldrh	r3, [r0, #42]	@ 0x2a
 800134e:	3b01      	subs	r3, #1
 8001350:	b29b      	uxth	r3, r3
 8001352:	8543      	strh	r3, [r0, #42]	@ 0x2a
 8001354:	8d43      	ldrh	r3, [r0, #42]	@ 0x2a
 8001356:	b29b      	uxth	r3, r3
 8001358:	b95b      	cbnz	r3, 8001372 <HAL_I2SEx_FullDuplex_IRQHandler+0x6a>
 800135a:	6853      	ldr	r3, [r2, #4]
 800135c:	f023 03a0 	bic.w	r3, r3, #160	@ 0xa0
 8001360:	6053      	str	r3, [r2, #4]
 8001362:	8e43      	ldrh	r3, [r0, #50]	@ 0x32
 8001364:	b29b      	uxth	r3, r3
 8001366:	b923      	cbnz	r3, 8001372 <HAL_I2SEx_FullDuplex_IRQHandler+0x6a>
 8001368:	2301      	movs	r3, #1
 800136a:	f880 3041 	strb.w	r3, [r0, #65]	@ 0x41
 800136e:	f7ff ffca 	bl	8001306 <HAL_I2SEx_TxRxCpltCallback>
 8001372:	9b01      	ldr	r3, [sp, #4]
 8001374:	07d8      	lsls	r0, r3, #31
 8001376:	d522      	bpl.n	80013be <HAL_I2SEx_FullDuplex_IRQHandler+0xb6>
 8001378:	9b03      	ldr	r3, [sp, #12]
 800137a:	0659      	lsls	r1, r3, #25
 800137c:	d51f      	bpl.n	80013be <HAL_I2SEx_FullDuplex_IRQHandler+0xb6>
 800137e:	6821      	ldr	r1, [r4, #0]
 8001380:	4a71      	ldr	r2, [pc, #452]	@ (8001548 <HAL_I2SEx_FullDuplex_IRQHandler+0x240>)
 8001382:	4b72      	ldr	r3, [pc, #456]	@ (800154c <HAL_I2SEx_FullDuplex_IRQHandler+0x244>)
 8001384:	4291      	cmp	r1, r2
 8001386:	bf18      	it	ne
 8001388:	f04f 2340 	movne.w	r3, #1073758208	@ 0x40004000
 800138c:	6ae2      	ldr	r2, [r4, #44]	@ 0x2c
 800138e:	68d9      	ldr	r1, [r3, #12]
 8001390:	1c90      	adds	r0, r2, #2
 8001392:	62e0      	str	r0, [r4, #44]	@ 0x2c
 8001394:	8011      	strh	r1, [r2, #0]
 8001396:	8e62      	ldrh	r2, [r4, #50]	@ 0x32
 8001398:	3a01      	subs	r2, #1
 800139a:	b292      	uxth	r2, r2
 800139c:	8662      	strh	r2, [r4, #50]	@ 0x32
 800139e:	8e62      	ldrh	r2, [r4, #50]	@ 0x32
 80013a0:	b292      	uxth	r2, r2
 80013a2:	b962      	cbnz	r2, 80013be <HAL_I2SEx_FullDuplex_IRQHandler+0xb6>
 80013a4:	685a      	ldr	r2, [r3, #4]
 80013a6:	f022 0260 	bic.w	r2, r2, #96	@ 0x60
 80013aa:	605a      	str	r2, [r3, #4]
 80013ac:	8d63      	ldrh	r3, [r4, #42]	@ 0x2a
 80013ae:	b29b      	uxth	r3, r3
 80013b0:	b92b      	cbnz	r3, 80013be <HAL_I2SEx_FullDuplex_IRQHandler+0xb6>
 80013b2:	2301      	movs	r3, #1
 80013b4:	f884 3041 	strb.w	r3, [r4, #65]	@ 0x41
 80013b8:	4620      	mov	r0, r4
 80013ba:	f7ff ffa4 	bl	8001306 <HAL_I2SEx_TxRxCpltCallback>
 80013be:	9b01      	ldr	r3, [sp, #4]
 80013c0:	065a      	lsls	r2, r3, #25
 80013c2:	d522      	bpl.n	800140a <HAL_I2SEx_FullDuplex_IRQHandler+0x102>
 80013c4:	9b03      	ldr	r3, [sp, #12]
 80013c6:	069b      	lsls	r3, r3, #26
 80013c8:	d51f      	bpl.n	800140a <HAL_I2SEx_FullDuplex_IRQHandler+0x102>
 80013ca:	6823      	ldr	r3, [r4, #0]
 80013cc:	495e      	ldr	r1, [pc, #376]	@ (8001548 <HAL_I2SEx_FullDuplex_IRQHandler+0x240>)
 80013ce:	4a5f      	ldr	r2, [pc, #380]	@ (800154c <HAL_I2SEx_FullDuplex_IRQHandler+0x244>)
 80013d0:	428b      	cmp	r3, r1
 80013d2:	bf18      	it	ne
 80013d4:	f04f 2240 	movne.w	r2, #1073758208	@ 0x40004000
 80013d8:	4620      	mov	r0, r4
 80013da:	6851      	ldr	r1, [r2, #4]
 80013dc:	f021 0160 	bic.w	r1, r1, #96	@ 0x60
 80013e0:	6051      	str	r1, [r2, #4]
 80013e2:	685a      	ldr	r2, [r3, #4]
 80013e4:	f022 02a0 	bic.w	r2, r2, #160	@ 0xa0
 80013e8:	605a      	str	r2, [r3, #4]
 80013ea:	2200      	movs	r2, #0
 80013ec:	9204      	str	r2, [sp, #16]
 80013ee:	68da      	ldr	r2, [r3, #12]
 80013f0:	9204      	str	r2, [sp, #16]
 80013f2:	689b      	ldr	r3, [r3, #8]
 80013f4:	9304      	str	r3, [sp, #16]
 80013f6:	9b04      	ldr	r3, [sp, #16]
 80013f8:	2301      	movs	r3, #1
 80013fa:	f884 3041 	strb.w	r3, [r4, #65]	@ 0x41
 80013fe:	6c63      	ldr	r3, [r4, #68]	@ 0x44
 8001400:	f043 0302 	orr.w	r3, r3, #2
 8001404:	6463      	str	r3, [r4, #68]	@ 0x44
 8001406:	f7ff feec 	bl	80011e2 <HAL_I2S_ErrorCallback>
 800140a:	9b00      	ldr	r3, [sp, #0]
 800140c:	0718      	lsls	r0, r3, #28
 800140e:	f140 8098 	bpl.w	8001542 <HAL_I2SEx_FullDuplex_IRQHandler+0x23a>
 8001412:	9b02      	ldr	r3, [sp, #8]
 8001414:	0699      	lsls	r1, r3, #26
 8001416:	f140 8094 	bpl.w	8001542 <HAL_I2SEx_FullDuplex_IRQHandler+0x23a>
 800141a:	6823      	ldr	r3, [r4, #0]
 800141c:	494a      	ldr	r1, [pc, #296]	@ (8001548 <HAL_I2SEx_FullDuplex_IRQHandler+0x240>)
 800141e:	685a      	ldr	r2, [r3, #4]
 8001420:	f022 02a0 	bic.w	r2, r2, #160	@ 0xa0
 8001424:	605a      	str	r2, [r3, #4]
 8001426:	4a49      	ldr	r2, [pc, #292]	@ (800154c <HAL_I2SEx_FullDuplex_IRQHandler+0x244>)
 8001428:	428b      	cmp	r3, r1
 800142a:	bf18      	it	ne
 800142c:	f04f 2240 	movne.w	r2, #1073758208	@ 0x40004000
 8001430:	6851      	ldr	r1, [r2, #4]
 8001432:	f021 0160 	bic.w	r1, r1, #96	@ 0x60
 8001436:	6051      	str	r1, [r2, #4]
 8001438:	2200      	movs	r2, #0
 800143a:	9205      	str	r2, [sp, #20]
 800143c:	689b      	ldr	r3, [r3, #8]
 800143e:	9305      	str	r3, [sp, #20]
 8001440:	9b05      	ldr	r3, [sp, #20]
 8001442:	2301      	movs	r3, #1
 8001444:	f884 3041 	strb.w	r3, [r4, #65]	@ 0x41
 8001448:	6c63      	ldr	r3, [r4, #68]	@ 0x44
 800144a:	4620      	mov	r0, r4
 800144c:	f043 0304 	orr.w	r3, r3, #4
 8001450:	6463      	str	r3, [r4, #68]	@ 0x44
 8001452:	b006      	add	sp, #24
 8001454:	e8bd 4010 	ldmia.w	sp!, {r4, lr}
 8001458:	f7ff bec3 	b.w	80011e2 <HAL_I2S_ErrorCallback>
 800145c:	9a01      	ldr	r2, [sp, #4]
 800145e:	0792      	lsls	r2, r2, #30
 8001460:	d51a      	bpl.n	8001498 <HAL_I2SEx_FullDuplex_IRQHandler+0x190>
 8001462:	9a03      	ldr	r2, [sp, #12]
 8001464:	0611      	lsls	r1, r2, #24
 8001466:	d517      	bpl.n	8001498 <HAL_I2SEx_FullDuplex_IRQHandler+0x190>
 8001468:	6a42      	ldr	r2, [r0, #36]	@ 0x24
 800146a:	1c91      	adds	r1, r2, #2
 800146c:	8812      	ldrh	r2, [r2, #0]
 800146e:	6241      	str	r1, [r0, #36]	@ 0x24
 8001470:	60da      	str	r2, [r3, #12]
 8001472:	8d42      	ldrh	r2, [r0, #42]	@ 0x2a
 8001474:	3a01      	subs	r2, #1
 8001476:	b292      	uxth	r2, r2
 8001478:	8542      	strh	r2, [r0, #42]	@ 0x2a
 800147a:	8d42      	ldrh	r2, [r0, #42]	@ 0x2a
 800147c:	b292      	uxth	r2, r2
 800147e:	b95a      	cbnz	r2, 8001498 <HAL_I2SEx_FullDuplex_IRQHandler+0x190>
 8001480:	685a      	ldr	r2, [r3, #4]
 8001482:	f022 02a0 	bic.w	r2, r2, #160	@ 0xa0
 8001486:	605a      	str	r2, [r3, #4]
 8001488:	8e43      	ldrh	r3, [r0, #50]	@ 0x32
 800148a:	b29b      	uxth	r3, r3
 800148c:	b923      	cbnz	r3, 8001498 <HAL_I2SEx_FullDuplex_IRQHandler+0x190>
 800148e:	2301      	movs	r3, #1
 8001490:	f880 3041 	strb.w	r3, [r0, #65]	@ 0x41
 8001494:	f7ff ff37 	bl	8001306 <HAL_I2SEx_TxRxCpltCallback>
 8001498:	9b00      	ldr	r3, [sp, #0]
 800149a:	07da      	lsls	r2, r3, #31
 800149c:	d51c      	bpl.n	80014d8 <HAL_I2SEx_FullDuplex_IRQHandler+0x1d0>
 800149e:	9b02      	ldr	r3, [sp, #8]
 80014a0:	065b      	lsls	r3, r3, #25
 80014a2:	d519      	bpl.n	80014d8 <HAL_I2SEx_FullDuplex_IRQHandler+0x1d0>
 80014a4:	6ae3      	ldr	r3, [r4, #44]	@ 0x2c
 80014a6:	6822      	ldr	r2, [r4, #0]
 80014a8:	1c98      	adds	r0, r3, #2
 80014aa:	68d1      	ldr	r1, [r2, #12]
 80014ac:	62e0      	str	r0, [r4, #44]	@ 0x2c
 80014ae:	8019      	strh	r1, [r3, #0]
 80014b0:	8e63      	ldrh	r3, [r4, #50]	@ 0x32
 80014b2:	3b01      	subs	r3, #1
 80014b4:	b29b      	uxth	r3, r3
 80014b6:	8663      	strh	r3, [r4, #50]	@ 0x32
 80014b8:	8e63      	ldrh	r3, [r4, #50]	@ 0x32
 80014ba:	b29b      	uxth	r3, r3
 80014bc:	b963      	cbnz	r3, 80014d8 <HAL_I2SEx_FullDuplex_IRQHandler+0x1d0>
 80014be:	6853      	ldr	r3, [r2, #4]
 80014c0:	f023 0360 	bic.w	r3, r3, #96	@ 0x60
 80014c4:	6053      	str	r3, [r2, #4]
 80014c6:	8d63      	ldrh	r3, [r4, #42]	@ 0x2a
 80014c8:	b29b      	uxth	r3, r3
 80014ca:	b92b      	cbnz	r3, 80014d8 <HAL_I2SEx_FullDuplex_IRQHandler+0x1d0>
 80014cc:	2301      	movs	r3, #1
 80014ce:	f884 3041 	strb.w	r3, [r4, #65]	@ 0x41
 80014d2:	4620      	mov	r0, r4
 80014d4:	f7ff ff17 	bl	8001306 <HAL_I2SEx_TxRxCpltCallback>
 80014d8:	9b00      	ldr	r3, [sp, #0]
 80014da:	0658      	lsls	r0, r3, #25
 80014dc:	d51b      	bpl.n	8001516 <HAL_I2SEx_FullDuplex_IRQHandler+0x20e>
 80014de:	9b02      	ldr	r3, [sp, #8]
 80014e0:	0699      	lsls	r1, r3, #26
 80014e2:	d518      	bpl.n	8001516 <HAL_I2SEx_FullDuplex_IRQHandler+0x20e>
 80014e4:	6822      	ldr	r2, [r4, #0]
 80014e6:	4918      	ldr	r1, [pc, #96]	@ (8001548 <HAL_I2SEx_FullDuplex_IRQHandler+0x240>)
 80014e8:	6853      	ldr	r3, [r2, #4]
 80014ea:	f023 0360 	bic.w	r3, r3, #96	@ 0x60
 80014ee:	6053      	str	r3, [r2, #4]
 80014f0:	4b16      	ldr	r3, [pc, #88]	@ (800154c <HAL_I2SEx_FullDuplex_IRQHandler+0x244>)
 80014f2:	428a      	cmp	r2, r1
 80014f4:	bf18      	it	ne
 80014f6:	f04f 2340 	movne.w	r3, #1073758208	@ 0x40004000
 80014fa:	4620      	mov	r0, r4
 80014fc:	685a      	ldr	r2, [r3, #4]
 80014fe:	f022 02a0 	bic.w	r2, r2, #160	@ 0xa0
 8001502:	605a      	str	r2, [r3, #4]
 8001504:	2301      	movs	r3, #1
 8001506:	f884 3041 	strb.w	r3, [r4, #65]	@ 0x41
 800150a:	6c63      	ldr	r3, [r4, #68]	@ 0x44
 800150c:	f043 0302 	orr.w	r3, r3, #2
 8001510:	6463      	str	r3, [r4, #68]	@ 0x44
 8001512:	f7ff fe66 	bl	80011e2 <HAL_I2S_ErrorCallback>
 8001516:	9b01      	ldr	r3, [sp, #4]
 8001518:	071a      	lsls	r2, r3, #28
 800151a:	d512      	bpl.n	8001542 <HAL_I2SEx_FullDuplex_IRQHandler+0x23a>
 800151c:	9b03      	ldr	r3, [sp, #12]
 800151e:	069b      	lsls	r3, r3, #26
 8001520:	d50f      	bpl.n	8001542 <HAL_I2SEx_FullDuplex_IRQHandler+0x23a>
 8001522:	6822      	ldr	r2, [r4, #0]
 8001524:	4908      	ldr	r1, [pc, #32]	@ (8001548 <HAL_I2SEx_FullDuplex_IRQHandler+0x240>)
 8001526:	4b09      	ldr	r3, [pc, #36]	@ (800154c <HAL_I2SEx_FullDuplex_IRQHandler+0x244>)
 8001528:	428a      	cmp	r2, r1
 800152a:	bf18      	it	ne
 800152c:	f04f 2340 	movne.w	r3, #1073758208	@ 0x40004000
 8001530:	6859      	ldr	r1, [r3, #4]
 8001532:	f021 01a0 	bic.w	r1, r1, #160	@ 0xa0
 8001536:	6059      	str	r1, [r3, #4]
 8001538:	6853      	ldr	r3, [r2, #4]
 800153a:	f023 0360 	bic.w	r3, r3, #96	@ 0x60
 800153e:	6053      	str	r3, [r2, #4]
 8001540:	e77f      	b.n	8001442 <HAL_I2SEx_FullDuplex_IRQHandler+0x13a>
 8001542:	b006      	add	sp, #24
 8001544:	bd10      	pop	{r4, pc}
 8001546:	bf00      	nop
 8001548:	40003800 	.word	0x40003800
 800154c:	40003400 	.word	0x40003400

08001550 <HAL_RCC_OscConfig>:
 8001550:	e92d 41f3 	stmdb	sp!, {r0, r1, r4, r5, r6, r7, r8, lr}
 8001554:	4604      	mov	r4, r0
 8001556:	b340      	cbz	r0, 80015aa <HAL_RCC_OscConfig+0x5a>
 8001558:	6803      	ldr	r3, [r0, #0]
 800155a:	07de      	lsls	r6, r3, #31
 800155c:	d410      	bmi.n	8001580 <HAL_RCC_OscConfig+0x30>
 800155e:	6823      	ldr	r3, [r4, #0]
 8001560:	079d      	lsls	r5, r3, #30
 8001562:	d45b      	bmi.n	800161c <HAL_RCC_OscConfig+0xcc>
 8001564:	6823      	ldr	r3, [r4, #0]
 8001566:	0719      	lsls	r1, r3, #28
 8001568:	f100 809d 	bmi.w	80016a6 <HAL_RCC_OscConfig+0x156>
 800156c:	6823      	ldr	r3, [r4, #0]
 800156e:	075a      	lsls	r2, r3, #29
 8001570:	f100 80bd 	bmi.w	80016ee <HAL_RCC_OscConfig+0x19e>
 8001574:	69a3      	ldr	r3, [r4, #24]
 8001576:	2b00      	cmp	r3, #0
 8001578:	f040 8124 	bne.w	80017c4 <HAL_RCC_OscConfig+0x274>
 800157c:	2000      	movs	r0, #0
 800157e:	e02c      	b.n	80015da <HAL_RCC_OscConfig+0x8a>
 8001580:	4b8d      	ldr	r3, [pc, #564]	@ (80017b8 <HAL_RCC_OscConfig+0x268>)
 8001582:	689a      	ldr	r2, [r3, #8]
 8001584:	f002 020c 	and.w	r2, r2, #12
 8001588:	2a04      	cmp	r2, #4
 800158a:	d007      	beq.n	800159c <HAL_RCC_OscConfig+0x4c>
 800158c:	689a      	ldr	r2, [r3, #8]
 800158e:	f002 020c 	and.w	r2, r2, #12
 8001592:	2a08      	cmp	r2, #8
 8001594:	d10b      	bne.n	80015ae <HAL_RCC_OscConfig+0x5e>
 8001596:	685b      	ldr	r3, [r3, #4]
 8001598:	0259      	lsls	r1, r3, #9
 800159a:	d508      	bpl.n	80015ae <HAL_RCC_OscConfig+0x5e>
 800159c:	4b86      	ldr	r3, [pc, #536]	@ (80017b8 <HAL_RCC_OscConfig+0x268>)
 800159e:	681b      	ldr	r3, [r3, #0]
 80015a0:	039a      	lsls	r2, r3, #14
 80015a2:	d5dc      	bpl.n	800155e <HAL_RCC_OscConfig+0xe>
 80015a4:	6863      	ldr	r3, [r4, #4]
 80015a6:	2b00      	cmp	r3, #0
 80015a8:	d1d9      	bne.n	800155e <HAL_RCC_OscConfig+0xe>
 80015aa:	2001      	movs	r0, #1
 80015ac:	e015      	b.n	80015da <HAL_RCC_OscConfig+0x8a>
 80015ae:	6863      	ldr	r3, [r4, #4]
 80015b0:	4d81      	ldr	r5, [pc, #516]	@ (80017b8 <HAL_RCC_OscConfig+0x268>)
 80015b2:	f5b3 3f80 	cmp.w	r3, #65536	@ 0x10000
 80015b6:	d113      	bne.n	80015e0 <HAL_RCC_OscConfig+0x90>
 80015b8:	682b      	ldr	r3, [r5, #0]
 80015ba:	f443 3380 	orr.w	r3, r3, #65536	@ 0x10000
 80015be:	602b      	str	r3, [r5, #0]
 80015c0:	f7ff fa3e 	bl	8000a40 <HAL_GetTick>
 80015c4:	4e7c      	ldr	r6, [pc, #496]	@ (80017b8 <HAL_RCC_OscConfig+0x268>)
 80015c6:	4605      	mov	r5, r0
 80015c8:	6833      	ldr	r3, [r6, #0]
 80015ca:	039b      	lsls	r3, r3, #14
 80015cc:	d4c7      	bmi.n	800155e <HAL_RCC_OscConfig+0xe>
 80015ce:	f7ff fa37 	bl	8000a40 <HAL_GetTick>
 80015d2:	1b40      	subs	r0, r0, r5
 80015d4:	2864      	cmp	r0, #100	@ 0x64
 80015d6:	d9f7      	bls.n	80015c8 <HAL_RCC_OscConfig+0x78>
 80015d8:	2003      	movs	r0, #3
 80015da:	b002      	add	sp, #8
 80015dc:	e8bd 81f0 	ldmia.w	sp!, {r4, r5, r6, r7, r8, pc}
 80015e0:	f5b3 2fa0 	cmp.w	r3, #327680	@ 0x50000
 80015e4:	d104      	bne.n	80015f0 <HAL_RCC_OscConfig+0xa0>
 80015e6:	682b      	ldr	r3, [r5, #0]
 80015e8:	f443 2380 	orr.w	r3, r3, #262144	@ 0x40000
 80015ec:	602b      	str	r3, [r5, #0]
 80015ee:	e7e3      	b.n	80015b8 <HAL_RCC_OscConfig+0x68>
 80015f0:	682a      	ldr	r2, [r5, #0]
 80015f2:	f422 3280 	bic.w	r2, r2, #65536	@ 0x10000
 80015f6:	602a      	str	r2, [r5, #0]
 80015f8:	682a      	ldr	r2, [r5, #0]
 80015fa:	f422 2280 	bic.w	r2, r2, #262144	@ 0x40000
 80015fe:	602a      	str	r2, [r5, #0]
 8001600:	2b00      	cmp	r3, #0
 8001602:	d1dd      	bne.n	80015c0 <HAL_RCC_OscConfig+0x70>
 8001604:	f7ff fa1c 	bl	8000a40 <HAL_GetTick>
 8001608:	4606      	mov	r6, r0
 800160a:	682b      	ldr	r3, [r5, #0]
 800160c:	039f      	lsls	r7, r3, #14
 800160e:	d5a6      	bpl.n	800155e <HAL_RCC_OscConfig+0xe>
 8001610:	f7ff fa16 	bl	8000a40 <HAL_GetTick>
 8001614:	1b80      	subs	r0, r0, r6
 8001616:	2864      	cmp	r0, #100	@ 0x64
 8001618:	d9f7      	bls.n	800160a <HAL_RCC_OscConfig+0xba>
 800161a:	e7dd      	b.n	80015d8 <HAL_RCC_OscConfig+0x88>
 800161c:	4b66      	ldr	r3, [pc, #408]	@ (80017b8 <HAL_RCC_OscConfig+0x268>)
 800161e:	689a      	ldr	r2, [r3, #8]
 8001620:	f012 0f0c 	tst.w	r2, #12
 8001624:	d007      	beq.n	8001636 <HAL_RCC_OscConfig+0xe6>
 8001626:	689a      	ldr	r2, [r3, #8]
 8001628:	f002 020c 	and.w	r2, r2, #12
 800162c:	2a08      	cmp	r2, #8
 800162e:	d111      	bne.n	8001654 <HAL_RCC_OscConfig+0x104>
 8001630:	685b      	ldr	r3, [r3, #4]
 8001632:	025d      	lsls	r5, r3, #9
 8001634:	d40e      	bmi.n	8001654 <HAL_RCC_OscConfig+0x104>
 8001636:	4a60      	ldr	r2, [pc, #384]	@ (80017b8 <HAL_RCC_OscConfig+0x268>)
 8001638:	6813      	ldr	r3, [r2, #0]
 800163a:	0799      	lsls	r1, r3, #30
 800163c:	d502      	bpl.n	8001644 <HAL_RCC_OscConfig+0xf4>
 800163e:	68e3      	ldr	r3, [r4, #12]
 8001640:	2b01      	cmp	r3, #1
 8001642:	d1b2      	bne.n	80015aa <HAL_RCC_OscConfig+0x5a>
 8001644:	6813      	ldr	r3, [r2, #0]
 8001646:	6921      	ldr	r1, [r4, #16]
 8001648:	f023 03f8 	bic.w	r3, r3, #248	@ 0xf8
 800164c:	ea43 03c1 	orr.w	r3, r3, r1, lsl #3
 8001650:	6013      	str	r3, [r2, #0]
 8001652:	e787      	b.n	8001564 <HAL_RCC_OscConfig+0x14>
 8001654:	68e2      	ldr	r2, [r4, #12]
 8001656:	4b59      	ldr	r3, [pc, #356]	@ (80017bc <HAL_RCC_OscConfig+0x26c>)
 8001658:	b1b2      	cbz	r2, 8001688 <HAL_RCC_OscConfig+0x138>
 800165a:	2201      	movs	r2, #1
 800165c:	601a      	str	r2, [r3, #0]
 800165e:	f7ff f9ef 	bl	8000a40 <HAL_GetTick>
 8001662:	4d55      	ldr	r5, [pc, #340]	@ (80017b8 <HAL_RCC_OscConfig+0x268>)
 8001664:	4606      	mov	r6, r0
 8001666:	682b      	ldr	r3, [r5, #0]
 8001668:	079b      	lsls	r3, r3, #30
 800166a:	d507      	bpl.n	800167c <HAL_RCC_OscConfig+0x12c>
 800166c:	682b      	ldr	r3, [r5, #0]
 800166e:	6922      	ldr	r2, [r4, #16]
 8001670:	f023 03f8 	bic.w	r3, r3, #248	@ 0xf8
 8001674:	ea43 03c2 	orr.w	r3, r3, r2, lsl #3
 8001678:	602b      	str	r3, [r5, #0]
 800167a:	e773      	b.n	8001564 <HAL_RCC_OscConfig+0x14>
 800167c:	f7ff f9e0 	bl	8000a40 <HAL_GetTick>
 8001680:	1b80      	subs	r0, r0, r6
 8001682:	2802      	cmp	r0, #2
 8001684:	d9ef      	bls.n	8001666 <HAL_RCC_OscConfig+0x116>
 8001686:	e7a7      	b.n	80015d8 <HAL_RCC_OscConfig+0x88>
 8001688:	601a      	str	r2, [r3, #0]
 800168a:	f7ff f9d9 	bl	8000a40 <HAL_GetTick>
 800168e:	4e4a      	ldr	r6, [pc, #296]	@ (80017b8 <HAL_RCC_OscConfig+0x268>)
 8001690:	4605      	mov	r5, r0
 8001692:	6833      	ldr	r3, [r6, #0]
 8001694:	079f      	lsls	r7, r3, #30
 8001696:	f57f af65 	bpl.w	8001564 <HAL_RCC_OscConfig+0x14>
 800169a:	f7ff f9d1 	bl	8000a40 <HAL_GetTick>
 800169e:	1b40      	subs	r0, r0, r5
 80016a0:	2802      	cmp	r0, #2
 80016a2:	d9f6      	bls.n	8001692 <HAL_RCC_OscConfig+0x142>
 80016a4:	e798      	b.n	80015d8 <HAL_RCC_OscConfig+0x88>
 80016a6:	6962      	ldr	r2, [r4, #20]
 80016a8:	4b44      	ldr	r3, [pc, #272]	@ (80017bc <HAL_RCC_OscConfig+0x26c>)
 80016aa:	b182      	cbz	r2, 80016ce <HAL_RCC_OscConfig+0x17e>
 80016ac:	2201      	movs	r2, #1
 80016ae:	f8c3 2e80 	str.w	r2, [r3, #3712]	@ 0xe80
 80016b2:	f7ff f9c5 	bl	8000a40 <HAL_GetTick>
 80016b6:	4e40      	ldr	r6, [pc, #256]	@ (80017b8 <HAL_RCC_OscConfig+0x268>)
 80016b8:	4605      	mov	r5, r0
 80016ba:	6f73      	ldr	r3, [r6, #116]	@ 0x74
 80016bc:	079b      	lsls	r3, r3, #30
 80016be:	f53f af55 	bmi.w	800156c <HAL_RCC_OscConfig+0x1c>
 80016c2:	f7ff f9bd 	bl	8000a40 <HAL_GetTick>
 80016c6:	1b40      	subs	r0, r0, r5
 80016c8:	2802      	cmp	r0, #2
 80016ca:	d9f6      	bls.n	80016ba <HAL_RCC_OscConfig+0x16a>
 80016cc:	e784      	b.n	80015d8 <HAL_RCC_OscConfig+0x88>
 80016ce:	f8c3 2e80 	str.w	r2, [r3, #3712]	@ 0xe80
 80016d2:	f7ff f9b5 	bl	8000a40 <HAL_GetTick>
 80016d6:	4e38      	ldr	r6, [pc, #224]	@ (80017b8 <HAL_RCC_OscConfig+0x268>)
 80016d8:	4605      	mov	r5, r0
 80016da:	6f73      	ldr	r3, [r6, #116]	@ 0x74
 80016dc:	079f      	lsls	r7, r3, #30
 80016de:	f57f af45 	bpl.w	800156c <HAL_RCC_OscConfig+0x1c>
 80016e2:	f7ff f9ad 	bl	8000a40 <HAL_GetTick>
 80016e6:	1b40      	subs	r0, r0, r5
 80016e8:	2802      	cmp	r0, #2
 80016ea:	d9f6      	bls.n	80016da <HAL_RCC_OscConfig+0x18a>
 80016ec:	e774      	b.n	80015d8 <HAL_RCC_OscConfig+0x88>
 80016ee:	4b32      	ldr	r3, [pc, #200]	@ (80017b8 <HAL_RCC_OscConfig+0x268>)
 80016f0:	6c1a      	ldr	r2, [r3, #64]	@ 0x40
 80016f2:	f012 5280 	ands.w	r2, r2, #268435456	@ 0x10000000
 80016f6:	d128      	bne.n	800174a <HAL_RCC_OscConfig+0x1fa>
 80016f8:	9201      	str	r2, [sp, #4]
 80016fa:	6c1a      	ldr	r2, [r3, #64]	@ 0x40
 80016fc:	f042 5280 	orr.w	r2, r2, #268435456	@ 0x10000000
 8001700:	641a      	str	r2, [r3, #64]	@ 0x40
 8001702:	6c1b      	ldr	r3, [r3, #64]	@ 0x40
 8001704:	f003 5380 	and.w	r3, r3, #268435456	@ 0x10000000
 8001708:	9301      	str	r3, [sp, #4]
 800170a:	9b01      	ldr	r3, [sp, #4]
 800170c:	2701      	movs	r7, #1
 800170e:	4d2c      	ldr	r5, [pc, #176]	@ (80017c0 <HAL_RCC_OscConfig+0x270>)
 8001710:	682b      	ldr	r3, [r5, #0]
 8001712:	05d8      	lsls	r0, r3, #23
 8001714:	d51b      	bpl.n	800174e <HAL_RCC_OscConfig+0x1fe>
 8001716:	68a3      	ldr	r3, [r4, #8]
 8001718:	4d27      	ldr	r5, [pc, #156]	@ (80017b8 <HAL_RCC_OscConfig+0x268>)
 800171a:	2b01      	cmp	r3, #1
 800171c:	d127      	bne.n	800176e <HAL_RCC_OscConfig+0x21e>
 800171e:	6f2b      	ldr	r3, [r5, #112]	@ 0x70
 8001720:	f043 0301 	orr.w	r3, r3, #1
 8001724:	672b      	str	r3, [r5, #112]	@ 0x70
 8001726:	f7ff f98b 	bl	8000a40 <HAL_GetTick>
 800172a:	4e23      	ldr	r6, [pc, #140]	@ (80017b8 <HAL_RCC_OscConfig+0x268>)
 800172c:	4605      	mov	r5, r0
 800172e:	f241 3888 	movw	r8, #5000	@ 0x1388
 8001732:	6f33      	ldr	r3, [r6, #112]	@ 0x70
 8001734:	079a      	lsls	r2, r3, #30
 8001736:	d539      	bpl.n	80017ac <HAL_RCC_OscConfig+0x25c>
 8001738:	2f00      	cmp	r7, #0
 800173a:	f43f af1b 	beq.w	8001574 <HAL_RCC_OscConfig+0x24>
 800173e:	4a1e      	ldr	r2, [pc, #120]	@ (80017b8 <HAL_RCC_OscConfig+0x268>)
 8001740:	6c13      	ldr	r3, [r2, #64]	@ 0x40
 8001742:	f023 5380 	bic.w	r3, r3, #268435456	@ 0x10000000
 8001746:	6413      	str	r3, [r2, #64]	@ 0x40
 8001748:	e714      	b.n	8001574 <HAL_RCC_OscConfig+0x24>
 800174a:	2700      	movs	r7, #0
 800174c:	e7df      	b.n	800170e <HAL_RCC_OscConfig+0x1be>
 800174e:	682b      	ldr	r3, [r5, #0]
 8001750:	f443 7380 	orr.w	r3, r3, #256	@ 0x100
 8001754:	602b      	str	r3, [r5, #0]
 8001756:	f7ff f973 	bl	8000a40 <HAL_GetTick>
 800175a:	4606      	mov	r6, r0
 800175c:	682b      	ldr	r3, [r5, #0]
 800175e:	05d9      	lsls	r1, r3, #23
 8001760:	d4d9      	bmi.n	8001716 <HAL_RCC_OscConfig+0x1c6>
 8001762:	f7ff f96d 	bl	8000a40 <HAL_GetTick>
 8001766:	1b80      	subs	r0, r0, r6
 8001768:	2802      	cmp	r0, #2
 800176a:	d9f7      	bls.n	800175c <HAL_RCC_OscConfig+0x20c>
 800176c:	e734      	b.n	80015d8 <HAL_RCC_OscConfig+0x88>
 800176e:	2b05      	cmp	r3, #5
 8001770:	d104      	bne.n	800177c <HAL_RCC_OscConfig+0x22c>
 8001772:	6f2b      	ldr	r3, [r5, #112]	@ 0x70
 8001774:	f043 0304 	orr.w	r3, r3, #4
 8001778:	672b      	str	r3, [r5, #112]	@ 0x70
 800177a:	e7d0      	b.n	800171e <HAL_RCC_OscConfig+0x1ce>
 800177c:	6f2a      	ldr	r2, [r5, #112]	@ 0x70
 800177e:	f022 0201 	bic.w	r2, r2, #1
 8001782:	672a      	str	r2, [r5, #112]	@ 0x70
 8001784:	6f2a      	ldr	r2, [r5, #112]	@ 0x70
 8001786:	f022 0204 	bic.w	r2, r2, #4
 800178a:	672a      	str	r2, [r5, #112]	@ 0x70
 800178c:	2b00      	cmp	r3, #0
 800178e:	d1ca      	bne.n	8001726 <HAL_RCC_OscConfig+0x1d6>
 8001790:	f7ff f956 	bl	8000a40 <HAL_GetTick>
 8001794:	f241 3888 	movw	r8, #5000	@ 0x1388
 8001798:	4606      	mov	r6, r0
 800179a:	6f2b      	ldr	r3, [r5, #112]	@ 0x70
 800179c:	079b      	lsls	r3, r3, #30
 800179e:	d5cb      	bpl.n	8001738 <HAL_RCC_OscConfig+0x1e8>
 80017a0:	f7ff f94e 	bl	8000a40 <HAL_GetTick>
 80017a4:	1b80      	subs	r0, r0, r6
 80017a6:	4540      	cmp	r0, r8
 80017a8:	d9f7      	bls.n	800179a <HAL_RCC_OscConfig+0x24a>
 80017aa:	e715      	b.n	80015d8 <HAL_RCC_OscConfig+0x88>
 80017ac:	f7ff f948 	bl	8000a40 <HAL_GetTick>
 80017b0:	1b40      	subs	r0, r0, r5
 80017b2:	4540      	cmp	r0, r8
 80017b4:	d9bd      	bls.n	8001732 <HAL_RCC_OscConfig+0x1e2>
 80017b6:	e70f      	b.n	80015d8 <HAL_RCC_OscConfig+0x88>
 80017b8:	40023800 	.word	0x40023800
 80017bc:	42470000 	.word	0x42470000
 80017c0:	40007000 	.word	0x40007000
 80017c4:	4d37      	ldr	r5, [pc, #220]	@ (80018a4 <HAL_RCC_OscConfig+0x354>)
 80017c6:	68aa      	ldr	r2, [r5, #8]
 80017c8:	f002 020c 	and.w	r2, r2, #12
 80017cc:	2a08      	cmp	r2, #8
 80017ce:	d03e      	beq.n	800184e <HAL_RCC_OscConfig+0x2fe>
 80017d0:	2b02      	cmp	r3, #2
 80017d2:	4b35      	ldr	r3, [pc, #212]	@ (80018a8 <HAL_RCC_OscConfig+0x358>)
 80017d4:	f04f 0200 	mov.w	r2, #0
 80017d8:	661a      	str	r2, [r3, #96]	@ 0x60
 80017da:	d12b      	bne.n	8001834 <HAL_RCC_OscConfig+0x2e4>
 80017dc:	f7ff f930 	bl	8000a40 <HAL_GetTick>
 80017e0:	4606      	mov	r6, r0
 80017e2:	682b      	ldr	r3, [r5, #0]
 80017e4:	0199      	lsls	r1, r3, #6
 80017e6:	d41f      	bmi.n	8001828 <HAL_RCC_OscConfig+0x2d8>
 80017e8:	e9d4 3207 	ldrd	r3, r2, [r4, #28]
 80017ec:	4313      	orrs	r3, r2
 80017ee:	6a62      	ldr	r2, [r4, #36]	@ 0x24
 80017f0:	ea43 1382 	orr.w	r3, r3, r2, lsl #6
 80017f4:	6ae2      	ldr	r2, [r4, #44]	@ 0x2c
 80017f6:	ea43 6302 	orr.w	r3, r3, r2, lsl #24
 80017fa:	6aa2      	ldr	r2, [r4, #40]	@ 0x28
 80017fc:	0852      	lsrs	r2, r2, #1
 80017fe:	3a01      	subs	r2, #1
 8001800:	ea43 4302 	orr.w	r3, r3, r2, lsl #16
 8001804:	606b      	str	r3, [r5, #4]
 8001806:	4b28      	ldr	r3, [pc, #160]	@ (80018a8 <HAL_RCC_OscConfig+0x358>)
 8001808:	4d26      	ldr	r5, [pc, #152]	@ (80018a4 <HAL_RCC_OscConfig+0x354>)
 800180a:	2201      	movs	r2, #1
 800180c:	661a      	str	r2, [r3, #96]	@ 0x60
 800180e:	f7ff f917 	bl	8000a40 <HAL_GetTick>
 8001812:	4604      	mov	r4, r0
 8001814:	682b      	ldr	r3, [r5, #0]
 8001816:	019a      	lsls	r2, r3, #6
 8001818:	f53f aeb0 	bmi.w	800157c <HAL_RCC_OscConfig+0x2c>
 800181c:	f7ff f910 	bl	8000a40 <HAL_GetTick>
 8001820:	1b00      	subs	r0, r0, r4
 8001822:	2802      	cmp	r0, #2
 8001824:	d9f6      	bls.n	8001814 <HAL_RCC_OscConfig+0x2c4>
 8001826:	e6d7      	b.n	80015d8 <HAL_RCC_OscConfig+0x88>
 8001828:	f7ff f90a 	bl	8000a40 <HAL_GetTick>
 800182c:	1b80      	subs	r0, r0, r6
 800182e:	2802      	cmp	r0, #2
 8001830:	d9d7      	bls.n	80017e2 <HAL_RCC_OscConfig+0x292>
 8001832:	e6d1      	b.n	80015d8 <HAL_RCC_OscConfig+0x88>
 8001834:	f7ff f904 	bl	8000a40 <HAL_GetTick>
 8001838:	4604      	mov	r4, r0
 800183a:	682b      	ldr	r3, [r5, #0]
 800183c:	019b      	lsls	r3, r3, #6
 800183e:	f57f ae9d 	bpl.w	800157c <HAL_RCC_OscConfig+0x2c>
 8001842:	f7ff f8fd 	bl	8000a40 <HAL_GetTick>
 8001846:	1b00      	subs	r0, r0, r4
 8001848:	2802      	cmp	r0, #2
 800184a:	d9f6      	bls.n	800183a <HAL_RCC_OscConfig+0x2ea>
 800184c:	e6c4      	b.n	80015d8 <HAL_RCC_OscConfig+0x88>
 800184e:	2b01      	cmp	r3, #1
 8001850:	f43f aeab 	beq.w	80015aa <HAL_RCC_OscConfig+0x5a>
 8001854:	686b      	ldr	r3, [r5, #4]
 8001856:	69e2      	ldr	r2, [r4, #28]
 8001858:	f403 0180 	and.w	r1, r3, #4194304	@ 0x400000
 800185c:	4291      	cmp	r1, r2
 800185e:	f47f aea4 	bne.w	80015aa <HAL_RCC_OscConfig+0x5a>
 8001862:	6a21      	ldr	r1, [r4, #32]
 8001864:	f003 023f 	and.w	r2, r3, #63	@ 0x3f
 8001868:	428a      	cmp	r2, r1
 800186a:	f47f ae9e 	bne.w	80015aa <HAL_RCC_OscConfig+0x5a>
 800186e:	6a61      	ldr	r1, [r4, #36]	@ 0x24
 8001870:	f647 72c0 	movw	r2, #32704	@ 0x7fc0
 8001874:	401a      	ands	r2, r3
 8001876:	ebb2 1f81 	cmp.w	r2, r1, lsl #6
 800187a:	f47f ae96 	bne.w	80015aa <HAL_RCC_OscConfig+0x5a>
 800187e:	6aa2      	ldr	r2, [r4, #40]	@ 0x28
 8001880:	0852      	lsrs	r2, r2, #1
 8001882:	f403 3140 	and.w	r1, r3, #196608	@ 0x30000
 8001886:	3a01      	subs	r2, #1
 8001888:	ebb1 4f02 	cmp.w	r1, r2, lsl #16
 800188c:	f47f ae8d 	bne.w	80015aa <HAL_RCC_OscConfig+0x5a>
 8001890:	6ae2      	ldr	r2, [r4, #44]	@ 0x2c
 8001892:	f003 6370 	and.w	r3, r3, #251658240	@ 0xf000000
 8001896:	ebb3 6f02 	cmp.w	r3, r2, lsl #24
 800189a:	bf14      	ite	ne
 800189c:	2001      	movne	r0, #1
 800189e:	2000      	moveq	r0, #0
 80018a0:	e69b      	b.n	80015da <HAL_RCC_OscConfig+0x8a>
 80018a2:	bf00      	nop
 80018a4:	40023800 	.word	0x40023800
 80018a8:	42470000 	.word	0x42470000

080018ac <HAL_RCC_GetSysClockFreq>:
 80018ac:	4913      	ldr	r1, [pc, #76]	@ (80018fc <HAL_RCC_GetSysClockFreq+0x50>)
 80018ae:	b508      	push	{r3, lr}
 80018b0:	688b      	ldr	r3, [r1, #8]
 80018b2:	f003 030c 	and.w	r3, r3, #12
 80018b6:	2b04      	cmp	r3, #4
 80018b8:	d01c      	beq.n	80018f4 <HAL_RCC_GetSysClockFreq+0x48>
 80018ba:	2b08      	cmp	r3, #8
 80018bc:	d11c      	bne.n	80018f8 <HAL_RCC_GetSysClockFreq+0x4c>
 80018be:	684a      	ldr	r2, [r1, #4]
 80018c0:	684b      	ldr	r3, [r1, #4]
 80018c2:	6849      	ldr	r1, [r1, #4]
 80018c4:	f413 0380 	ands.w	r3, r3, #4194304	@ 0x400000
 80018c8:	bf14      	ite	ne
 80018ca:	480d      	ldrne	r0, [pc, #52]	@ (8001900 <HAL_RCC_GetSysClockFreq+0x54>)
 80018cc:	480d      	ldreq	r0, [pc, #52]	@ (8001904 <HAL_RCC_GetSysClockFreq+0x58>)
 80018ce:	f3c1 1188 	ubfx	r1, r1, #6, #9
 80018d2:	bf18      	it	ne
 80018d4:	2300      	movne	r3, #0
 80018d6:	f002 023f 	and.w	r2, r2, #63	@ 0x3f
 80018da:	fba1 0100 	umull	r0, r1, r1, r0
 80018de:	f7fe fc7b 	bl	80001d8 <__aeabi_uldivmod>
 80018e2:	4b06      	ldr	r3, [pc, #24]	@ (80018fc <HAL_RCC_GetSysClockFreq+0x50>)
 80018e4:	685b      	ldr	r3, [r3, #4]
 80018e6:	f3c3 4301 	ubfx	r3, r3, #16, #2
 80018ea:	3301      	adds	r3, #1
 80018ec:	005b      	lsls	r3, r3, #1
 80018ee:	fbb0 f0f3 	udiv	r0, r0, r3
 80018f2:	bd08      	pop	{r3, pc}
 80018f4:	4802      	ldr	r0, [pc, #8]	@ (8001900 <HAL_RCC_GetSysClockFreq+0x54>)
 80018f6:	e7fc      	b.n	80018f2 <HAL_RCC_GetSysClockFreq+0x46>
 80018f8:	4802      	ldr	r0, [pc, #8]	@ (8001904 <HAL_RCC_GetSysClockFreq+0x58>)
 80018fa:	e7fa      	b.n	80018f2 <HAL_RCC_GetSysClockFreq+0x46>
 80018fc:	40023800 	.word	0x40023800
 8001900:	017d7840 	.word	0x017d7840
 8001904:	00f42400 	.word	0x00f42400

08001908 <HAL_RCC_ClockConfig>:
 8001908:	e92d 41f0 	stmdb	sp!, {r4, r5, r6, r7, r8, lr}
 800190c:	460d      	mov	r5, r1
 800190e:	4604      	mov	r4, r0
 8001910:	b910      	cbnz	r0, 8001918 <HAL_RCC_ClockConfig+0x10>
 8001912:	2001      	movs	r0, #1
 8001914:	e8bd 81f0 	ldmia.w	sp!, {r4, r5, r6, r7, r8, pc}
 8001918:	4b43      	ldr	r3, [pc, #268]	@ (8001a28 <HAL_RCC_ClockConfig+0x120>)
 800191a:	681a      	ldr	r2, [r3, #0]
 800191c:	f002 0207 	and.w	r2, r2, #7
 8001920:	428a      	cmp	r2, r1
 8001922:	d328      	bcc.n	8001976 <HAL_RCC_ClockConfig+0x6e>
 8001924:	6821      	ldr	r1, [r4, #0]
 8001926:	078f      	lsls	r7, r1, #30
 8001928:	d42d      	bmi.n	8001986 <HAL_RCC_ClockConfig+0x7e>
 800192a:	07c8      	lsls	r0, r1, #31
 800192c:	d440      	bmi.n	80019b0 <HAL_RCC_ClockConfig+0xa8>
 800192e:	4b3e      	ldr	r3, [pc, #248]	@ (8001a28 <HAL_RCC_ClockConfig+0x120>)
 8001930:	681a      	ldr	r2, [r3, #0]
 8001932:	f002 0207 	and.w	r2, r2, #7
 8001936:	42aa      	cmp	r2, r5
 8001938:	d865      	bhi.n	8001a06 <HAL_RCC_ClockConfig+0xfe>
 800193a:	6822      	ldr	r2, [r4, #0]
 800193c:	0751      	lsls	r1, r2, #29
 800193e:	d46b      	bmi.n	8001a18 <HAL_RCC_ClockConfig+0x110>
 8001940:	0713      	lsls	r3, r2, #28
 8001942:	d507      	bpl.n	8001954 <HAL_RCC_ClockConfig+0x4c>
 8001944:	4a39      	ldr	r2, [pc, #228]	@ (8001a2c <HAL_RCC_ClockConfig+0x124>)
 8001946:	6921      	ldr	r1, [r4, #16]
 8001948:	6893      	ldr	r3, [r2, #8]
 800194a:	f423 4360 	bic.w	r3, r3, #57344	@ 0xe000
 800194e:	ea43 03c1 	orr.w	r3, r3, r1, lsl #3
 8001952:	6093      	str	r3, [r2, #8]
 8001954:	f7ff ffaa 	bl	80018ac <HAL_RCC_GetSysClockFreq>
 8001958:	4b34      	ldr	r3, [pc, #208]	@ (8001a2c <HAL_RCC_ClockConfig+0x124>)
 800195a:	4a35      	ldr	r2, [pc, #212]	@ (8001a30 <HAL_RCC_ClockConfig+0x128>)
 800195c:	689b      	ldr	r3, [r3, #8]
 800195e:	f3c3 1303 	ubfx	r3, r3, #4, #4
 8001962:	5cd3      	ldrb	r3, [r2, r3]
 8001964:	40d8      	lsrs	r0, r3
 8001966:	4b33      	ldr	r3, [pc, #204]	@ (8001a34 <HAL_RCC_ClockConfig+0x12c>)
 8001968:	6018      	str	r0, [r3, #0]
 800196a:	4b33      	ldr	r3, [pc, #204]	@ (8001a38 <HAL_RCC_ClockConfig+0x130>)
 800196c:	6818      	ldr	r0, [r3, #0]
 800196e:	f7ff f81d 	bl	80009ac <HAL_InitTick>
 8001972:	2000      	movs	r0, #0
 8001974:	e7ce      	b.n	8001914 <HAL_RCC_ClockConfig+0xc>
 8001976:	b2ca      	uxtb	r2, r1
 8001978:	701a      	strb	r2, [r3, #0]
 800197a:	681b      	ldr	r3, [r3, #0]
 800197c:	f003 0307 	and.w	r3, r3, #7
 8001980:	428b      	cmp	r3, r1
 8001982:	d1c6      	bne.n	8001912 <HAL_RCC_ClockConfig+0xa>
 8001984:	e7ce      	b.n	8001924 <HAL_RCC_ClockConfig+0x1c>
 8001986:	4b29      	ldr	r3, [pc, #164]	@ (8001a2c <HAL_RCC_ClockConfig+0x124>)
 8001988:	f011 0f04 	tst.w	r1, #4
 800198c:	bf1e      	ittt	ne
 800198e:	689a      	ldrne	r2, [r3, #8]
 8001990:	f442 52e0 	orrne.w	r2, r2, #7168	@ 0x1c00
 8001994:	609a      	strne	r2, [r3, #8]
 8001996:	070e      	lsls	r6, r1, #28
 8001998:	bf42      	ittt	mi
 800199a:	689a      	ldrmi	r2, [r3, #8]
 800199c:	f442 4260 	orrmi.w	r2, r2, #57344	@ 0xe000
 80019a0:	609a      	strmi	r2, [r3, #8]
 80019a2:	689a      	ldr	r2, [r3, #8]
 80019a4:	68a0      	ldr	r0, [r4, #8]
 80019a6:	f022 02f0 	bic.w	r2, r2, #240	@ 0xf0
 80019aa:	4302      	orrs	r2, r0
 80019ac:	609a      	str	r2, [r3, #8]
 80019ae:	e7bc      	b.n	800192a <HAL_RCC_ClockConfig+0x22>
 80019b0:	6862      	ldr	r2, [r4, #4]
 80019b2:	4b1e      	ldr	r3, [pc, #120]	@ (8001a2c <HAL_RCC_ClockConfig+0x124>)
 80019b4:	2a01      	cmp	r2, #1
 80019b6:	d11c      	bne.n	80019f2 <HAL_RCC_ClockConfig+0xea>
 80019b8:	681b      	ldr	r3, [r3, #0]
 80019ba:	f413 3f00 	tst.w	r3, #131072	@ 0x20000
 80019be:	d0a8      	beq.n	8001912 <HAL_RCC_ClockConfig+0xa>
 80019c0:	4e1a      	ldr	r6, [pc, #104]	@ (8001a2c <HAL_RCC_ClockConfig+0x124>)
 80019c2:	68b3      	ldr	r3, [r6, #8]
 80019c4:	f023 0303 	bic.w	r3, r3, #3
 80019c8:	4313      	orrs	r3, r2
 80019ca:	60b3      	str	r3, [r6, #8]
 80019cc:	f7ff f838 	bl	8000a40 <HAL_GetTick>
 80019d0:	f241 3888 	movw	r8, #5000	@ 0x1388
 80019d4:	4607      	mov	r7, r0
 80019d6:	68b3      	ldr	r3, [r6, #8]
 80019d8:	6862      	ldr	r2, [r4, #4]
 80019da:	f003 030c 	and.w	r3, r3, #12
 80019de:	ebb3 0f82 	cmp.w	r3, r2, lsl #2
 80019e2:	d0a4      	beq.n	800192e <HAL_RCC_ClockConfig+0x26>
 80019e4:	f7ff f82c 	bl	8000a40 <HAL_GetTick>
 80019e8:	1bc0      	subs	r0, r0, r7
 80019ea:	4540      	cmp	r0, r8
 80019ec:	d9f3      	bls.n	80019d6 <HAL_RCC_ClockConfig+0xce>
 80019ee:	2003      	movs	r0, #3
 80019f0:	e790      	b.n	8001914 <HAL_RCC_ClockConfig+0xc>
 80019f2:	1e91      	subs	r1, r2, #2
 80019f4:	2901      	cmp	r1, #1
 80019f6:	681b      	ldr	r3, [r3, #0]
 80019f8:	d802      	bhi.n	8001a00 <HAL_RCC_ClockConfig+0xf8>
 80019fa:	f013 7f00 	tst.w	r3, #33554432	@ 0x2000000
 80019fe:	e7de      	b.n	80019be <HAL_RCC_ClockConfig+0xb6>
 8001a00:	f013 0f02 	tst.w	r3, #2
 8001a04:	e7db      	b.n	80019be <HAL_RCC_ClockConfig+0xb6>
 8001a06:	b2ea      	uxtb	r2, r5
 8001a08:	701a      	strb	r2, [r3, #0]
 8001a0a:	681b      	ldr	r3, [r3, #0]
 8001a0c:	f003 0307 	and.w	r3, r3, #7
 8001a10:	42ab      	cmp	r3, r5
 8001a12:	f47f af7e 	bne.w	8001912 <HAL_RCC_ClockConfig+0xa>
 8001a16:	e790      	b.n	800193a <HAL_RCC_ClockConfig+0x32>
 8001a18:	4904      	ldr	r1, [pc, #16]	@ (8001a2c <HAL_RCC_ClockConfig+0x124>)
 8001a1a:	68e0      	ldr	r0, [r4, #12]
 8001a1c:	688b      	ldr	r3, [r1, #8]
 8001a1e:	f423 53e0 	bic.w	r3, r3, #7168	@ 0x1c00
 8001a22:	4303      	orrs	r3, r0
 8001a24:	608b      	str	r3, [r1, #8]
 8001a26:	e78b      	b.n	8001940 <HAL_RCC_ClockConfig+0x38>
 8001a28:	40023c00 	.word	0x40023c00
 8001a2c:	40023800 	.word	0x40023800
 8001a30:	08014bf2 	.word	0x08014bf2
 8001a34:	2000005c 	.word	0x2000005c
 8001a38:	20000064 	.word	0x20000064

08001a3c <HAL_RCCEx_PeriphCLKConfig>:
 8001a3c:	6803      	ldr	r3, [r0, #0]
 8001a3e:	f013 0f05 	tst.w	r3, #5
 8001a42:	b5f7      	push	{r0, r1, r2, r4, r5, r6, r7, lr}
 8001a44:	4604      	mov	r4, r0
 8001a46:	d139      	bne.n	8001abc <HAL_RCCEx_PeriphCLKConfig+0x80>
 8001a48:	6823      	ldr	r3, [r4, #0]
 8001a4a:	079a      	lsls	r2, r3, #30
 8001a4c:	d531      	bpl.n	8001ab2 <HAL_RCCEx_PeriphCLKConfig+0x76>
 8001a4e:	2300      	movs	r3, #0
 8001a50:	9301      	str	r3, [sp, #4]
 8001a52:	4b47      	ldr	r3, [pc, #284]	@ (8001b70 <HAL_RCCEx_PeriphCLKConfig+0x134>)
 8001a54:	4d47      	ldr	r5, [pc, #284]	@ (8001b74 <HAL_RCCEx_PeriphCLKConfig+0x138>)
 8001a56:	6c1a      	ldr	r2, [r3, #64]	@ 0x40
 8001a58:	f042 5280 	orr.w	r2, r2, #268435456	@ 0x10000000
 8001a5c:	641a      	str	r2, [r3, #64]	@ 0x40
 8001a5e:	6c1b      	ldr	r3, [r3, #64]	@ 0x40
 8001a60:	f003 5380 	and.w	r3, r3, #268435456	@ 0x10000000
 8001a64:	9301      	str	r3, [sp, #4]
 8001a66:	9b01      	ldr	r3, [sp, #4]
 8001a68:	682b      	ldr	r3, [r5, #0]
 8001a6a:	f443 7380 	orr.w	r3, r3, #256	@ 0x100
 8001a6e:	602b      	str	r3, [r5, #0]
 8001a70:	f7fe ffe6 	bl	8000a40 <HAL_GetTick>
 8001a74:	4606      	mov	r6, r0
 8001a76:	682b      	ldr	r3, [r5, #0]
 8001a78:	05d8      	lsls	r0, r3, #23
 8001a7a:	d54a      	bpl.n	8001b12 <HAL_RCCEx_PeriphCLKConfig+0xd6>
 8001a7c:	4d3c      	ldr	r5, [pc, #240]	@ (8001b70 <HAL_RCCEx_PeriphCLKConfig+0x134>)
 8001a7e:	6922      	ldr	r2, [r4, #16]
 8001a80:	6f2b      	ldr	r3, [r5, #112]	@ 0x70
 8001a82:	f413 7340 	ands.w	r3, r3, #768	@ 0x300
 8001a86:	d14a      	bne.n	8001b1e <HAL_RCCEx_PeriphCLKConfig+0xe2>
 8001a88:	6923      	ldr	r3, [r4, #16]
 8001a8a:	f403 7240 	and.w	r2, r3, #768	@ 0x300
 8001a8e:	f5b2 7f40 	cmp.w	r2, #768	@ 0x300
 8001a92:	4a37      	ldr	r2, [pc, #220]	@ (8001b70 <HAL_RCCEx_PeriphCLKConfig+0x134>)
 8001a94:	d163      	bne.n	8001b5e <HAL_RCCEx_PeriphCLKConfig+0x122>
 8001a96:	6891      	ldr	r1, [r2, #8]
 8001a98:	f023 4070 	bic.w	r0, r3, #4026531840	@ 0xf0000000
 8001a9c:	f421 11f8 	bic.w	r1, r1, #2031616	@ 0x1f0000
 8001aa0:	f420 7040 	bic.w	r0, r0, #768	@ 0x300
 8001aa4:	4301      	orrs	r1, r0
 8001aa6:	6091      	str	r1, [r2, #8]
 8001aa8:	6f11      	ldr	r1, [r2, #112]	@ 0x70
 8001aaa:	f3c3 030b 	ubfx	r3, r3, #0, #12
 8001aae:	430b      	orrs	r3, r1
 8001ab0:	6713      	str	r3, [r2, #112]	@ 0x70
 8001ab2:	6823      	ldr	r3, [r4, #0]
 8001ab4:	071b      	lsls	r3, r3, #28
 8001ab6:	d456      	bmi.n	8001b66 <HAL_RCCEx_PeriphCLKConfig+0x12a>
 8001ab8:	2000      	movs	r0, #0
 8001aba:	e028      	b.n	8001b0e <HAL_RCCEx_PeriphCLKConfig+0xd2>
 8001abc:	4b2e      	ldr	r3, [pc, #184]	@ (8001b78 <HAL_RCCEx_PeriphCLKConfig+0x13c>)
 8001abe:	4e2c      	ldr	r6, [pc, #176]	@ (8001b70 <HAL_RCCEx_PeriphCLKConfig+0x134>)
 8001ac0:	2200      	movs	r2, #0
 8001ac2:	669a      	str	r2, [r3, #104]	@ 0x68
 8001ac4:	f7fe ffbc 	bl	8000a40 <HAL_GetTick>
 8001ac8:	4605      	mov	r5, r0
 8001aca:	6833      	ldr	r3, [r6, #0]
 8001acc:	011b      	lsls	r3, r3, #4
 8001ace:	d418      	bmi.n	8001b02 <HAL_RCCEx_PeriphCLKConfig+0xc6>
 8001ad0:	e9d4 2302 	ldrd	r2, r3, [r4, #8]
 8001ad4:	071b      	lsls	r3, r3, #28
 8001ad6:	ea43 1382 	orr.w	r3, r3, r2, lsl #6
 8001ada:	6862      	ldr	r2, [r4, #4]
 8001adc:	4313      	orrs	r3, r2
 8001ade:	f8c6 3084 	str.w	r3, [r6, #132]	@ 0x84
 8001ae2:	4b25      	ldr	r3, [pc, #148]	@ (8001b78 <HAL_RCCEx_PeriphCLKConfig+0x13c>)
 8001ae4:	4e22      	ldr	r6, [pc, #136]	@ (8001b70 <HAL_RCCEx_PeriphCLKConfig+0x134>)
 8001ae6:	2201      	movs	r2, #1
 8001ae8:	669a      	str	r2, [r3, #104]	@ 0x68
 8001aea:	f7fe ffa9 	bl	8000a40 <HAL_GetTick>
 8001aee:	4605      	mov	r5, r0
 8001af0:	6833      	ldr	r3, [r6, #0]
 8001af2:	011f      	lsls	r7, r3, #4
 8001af4:	d4a8      	bmi.n	8001a48 <HAL_RCCEx_PeriphCLKConfig+0xc>
 8001af6:	f7fe ffa3 	bl	8000a40 <HAL_GetTick>
 8001afa:	1b40      	subs	r0, r0, r5
 8001afc:	2802      	cmp	r0, #2
 8001afe:	d9f7      	bls.n	8001af0 <HAL_RCCEx_PeriphCLKConfig+0xb4>
 8001b00:	e004      	b.n	8001b0c <HAL_RCCEx_PeriphCLKConfig+0xd0>
 8001b02:	f7fe ff9d 	bl	8000a40 <HAL_GetTick>
 8001b06:	1b40      	subs	r0, r0, r5
 8001b08:	2802      	cmp	r0, #2
 8001b0a:	d9de      	bls.n	8001aca <HAL_RCCEx_PeriphCLKConfig+0x8e>
 8001b0c:	2003      	movs	r0, #3
 8001b0e:	b003      	add	sp, #12
 8001b10:	bdf0      	pop	{r4, r5, r6, r7, pc}
 8001b12:	f7fe ff95 	bl	8000a40 <HAL_GetTick>
 8001b16:	1b80      	subs	r0, r0, r6
 8001b18:	2802      	cmp	r0, #2
 8001b1a:	d9ac      	bls.n	8001a76 <HAL_RCCEx_PeriphCLKConfig+0x3a>
 8001b1c:	e7f6      	b.n	8001b0c <HAL_RCCEx_PeriphCLKConfig+0xd0>
 8001b1e:	f402 7240 	and.w	r2, r2, #768	@ 0x300
 8001b22:	4293      	cmp	r3, r2
 8001b24:	d0b0      	beq.n	8001a88 <HAL_RCCEx_PeriphCLKConfig+0x4c>
 8001b26:	6f2b      	ldr	r3, [r5, #112]	@ 0x70
 8001b28:	4a13      	ldr	r2, [pc, #76]	@ (8001b78 <HAL_RCCEx_PeriphCLKConfig+0x13c>)
 8001b2a:	2101      	movs	r1, #1
 8001b2c:	f8c2 1e40 	str.w	r1, [r2, #3648]	@ 0xe40
 8001b30:	f423 7340 	bic.w	r3, r3, #768	@ 0x300
 8001b34:	2100      	movs	r1, #0
 8001b36:	f8c2 1e40 	str.w	r1, [r2, #3648]	@ 0xe40
 8001b3a:	672b      	str	r3, [r5, #112]	@ 0x70
 8001b3c:	6f2b      	ldr	r3, [r5, #112]	@ 0x70
 8001b3e:	07d9      	lsls	r1, r3, #31
 8001b40:	d5a2      	bpl.n	8001a88 <HAL_RCCEx_PeriphCLKConfig+0x4c>
 8001b42:	f7fe ff7d 	bl	8000a40 <HAL_GetTick>
 8001b46:	f241 3788 	movw	r7, #5000	@ 0x1388
 8001b4a:	4606      	mov	r6, r0
 8001b4c:	6f2b      	ldr	r3, [r5, #112]	@ 0x70
 8001b4e:	079a      	lsls	r2, r3, #30
 8001b50:	d49a      	bmi.n	8001a88 <HAL_RCCEx_PeriphCLKConfig+0x4c>
 8001b52:	f7fe ff75 	bl	8000a40 <HAL_GetTick>
 8001b56:	1b80      	subs	r0, r0, r6
 8001b58:	42b8      	cmp	r0, r7
 8001b5a:	d9f7      	bls.n	8001b4c <HAL_RCCEx_PeriphCLKConfig+0x110>
 8001b5c:	e7d6      	b.n	8001b0c <HAL_RCCEx_PeriphCLKConfig+0xd0>
 8001b5e:	6891      	ldr	r1, [r2, #8]
 8001b60:	f421 11f8 	bic.w	r1, r1, #2031616	@ 0x1f0000
 8001b64:	e79f      	b.n	8001aa6 <HAL_RCCEx_PeriphCLKConfig+0x6a>
 8001b66:	4b05      	ldr	r3, [pc, #20]	@ (8001b7c <HAL_RCCEx_PeriphCLKConfig+0x140>)
 8001b68:	7d22      	ldrb	r2, [r4, #20]
 8001b6a:	f8c3 21e0 	str.w	r2, [r3, #480]	@ 0x1e0
 8001b6e:	e7a3      	b.n	8001ab8 <HAL_RCCEx_PeriphCLKConfig+0x7c>
 8001b70:	40023800 	.word	0x40023800
 8001b74:	40007000 	.word	0x40007000
 8001b78:	42470000 	.word	0x42470000
 8001b7c:	42471000 	.word	0x42471000

08001b80 <HAL_RCCEx_GetPeriphCLKFreq>:
 8001b80:	2801      	cmp	r0, #1
 8001b82:	d11c      	bne.n	8001bbe <HAL_RCCEx_GetPeriphCLKFreq+0x3e>
 8001b84:	4b10      	ldr	r3, [pc, #64]	@ (8001bc8 <HAL_RCCEx_GetPeriphCLKFreq+0x48>)
 8001b86:	689a      	ldr	r2, [r3, #8]
 8001b88:	0212      	lsls	r2, r2, #8
 8001b8a:	d41a      	bmi.n	8001bc2 <HAL_RCCEx_GetPeriphCLKFreq+0x42>
 8001b8c:	685a      	ldr	r2, [r3, #4]
 8001b8e:	f412 0f80 	tst.w	r2, #4194304	@ 0x400000
 8001b92:	f8d3 2084 	ldr.w	r2, [r3, #132]	@ 0x84
 8001b96:	bf14      	ite	ne
 8001b98:	4b0c      	ldrne	r3, [pc, #48]	@ (8001bcc <HAL_RCCEx_GetPeriphCLKFreq+0x4c>)
 8001b9a:	4b0d      	ldreq	r3, [pc, #52]	@ (8001bd0 <HAL_RCCEx_GetPeriphCLKFreq+0x50>)
 8001b9c:	f002 023f 	and.w	r2, r2, #63	@ 0x3f
 8001ba0:	fbb3 f3f2 	udiv	r3, r3, r2
 8001ba4:	4a08      	ldr	r2, [pc, #32]	@ (8001bc8 <HAL_RCCEx_GetPeriphCLKFreq+0x48>)
 8001ba6:	f8d2 0084 	ldr.w	r0, [r2, #132]	@ 0x84
 8001baa:	f8d2 2084 	ldr.w	r2, [r2, #132]	@ 0x84
 8001bae:	f3c0 1088 	ubfx	r0, r0, #6, #9
 8001bb2:	4358      	muls	r0, r3
 8001bb4:	f3c2 7302 	ubfx	r3, r2, #28, #3
 8001bb8:	fbb0 f0f3 	udiv	r0, r0, r3
 8001bbc:	4770      	bx	lr
 8001bbe:	2000      	movs	r0, #0
 8001bc0:	4770      	bx	lr
 8001bc2:	4804      	ldr	r0, [pc, #16]	@ (8001bd4 <HAL_RCCEx_GetPeriphCLKFreq+0x54>)
 8001bc4:	4770      	bx	lr
 8001bc6:	bf00      	nop
 8001bc8:	40023800 	.word	0x40023800
 8001bcc:	017d7840 	.word	0x017d7840
 8001bd0:	00f42400 	.word	0x00f42400
 8001bd4:	00bb8000 	.word	0x00bb8000

08001bd8 <memset>:
 8001bd8:	4402      	add	r2, r0
 8001bda:	4603      	mov	r3, r0
 8001bdc:	4293      	cmp	r3, r2
 8001bde:	d100      	bne.n	8001be2 <memset+0xa>
 8001be0:	4770      	bx	lr
 8001be2:	f803 1b01 	strb.w	r1, [r3], #1
 8001be6:	e7f9      	b.n	8001bdc <memset+0x4>

08001be8 <__libc_init_array>:
 8001be8:	b570      	push	{r4, r5, r6, lr}
 8001bea:	4d0d      	ldr	r5, [pc, #52]	@ (8001c20 <__libc_init_array+0x38>)
 8001bec:	4c0d      	ldr	r4, [pc, #52]	@ (8001c24 <__libc_init_array+0x3c>)
 8001bee:	1b64      	subs	r4, r4, r5
 8001bf0:	10a4      	asrs	r4, r4, #2
 8001bf2:	2600      	movs	r6, #0
 8001bf4:	42a6      	cmp	r6, r4
 8001bf6:	d109      	bne.n	8001c0c <__libc_init_array+0x24>
 8001bf8:	4d0b      	ldr	r5, [pc, #44]	@ (8001c28 <__libc_init_array+0x40>)
 8001bfa:	4c0c      	ldr	r4, [pc, #48]	@ (8001c2c <__libc_init_array+0x44>)
 8001bfc:	f000 f818 	bl	8001c30 <_init>
 8001c00:	1b64      	subs	r4, r4, r5
 8001c02:	10a4      	asrs	r4, r4, #2
 8001c04:	2600      	movs	r6, #0
 8001c06:	42a6      	cmp	r6, r4
 8001c08:	d105      	bne.n	8001c16 <__libc_init_array+0x2e>
 8001c0a:	bd70      	pop	{r4, r5, r6, pc}
 8001c0c:	f855 3b04 	ldr.w	r3, [r5], #4
 8001c10:	4798      	blx	r3
 8001c12:	3601      	adds	r6, #1
 8001c14:	e7ee      	b.n	8001bf4 <__libc_init_array+0xc>
 8001c16:	f855 3b04 	ldr.w	r3, [r5], #4
 8001c1a:	4798      	blx	r3
 8001c1c:	3601      	adds	r6, #1
 8001c1e:	e7f2      	b.n	8001c06 <__libc_init_array+0x1e>
 8001c20:	08014c14 	.word	0x08014c14
 8001c24:	08014c14 	.word	0x08014c14
 8001c28:	08014c14 	.word	0x08014c14
 8001c2c:	08014c18 	.word	0x08014c18

08001c30 <_init>:
 8001c30:	b5f8      	push	{r3, r4, r5, r6, r7, lr}
 8001c32:	bf00      	nop
 8001c34:	bcf8      	pop	{r3, r4, r5, r6, r7}
 8001c36:	bc08      	pop	{r3}
 8001c38:	469e      	mov	lr, r3
 8001c3a:	4770      	bx	lr

08001c3c <_fini>:
 8001c3c:	b5f8      	push	{r3, r4, r5, r6, r7, lr}
 8001c3e:	bf00      	nop
 8001c40:	bcf8      	pop	{r3, r4, r5, r6, r7}
 8001c42:	bc08      	pop	{r3}
 8001c44:	469e      	mov	lr, r3
 8001c46:	4770      	bx	lr
